(dp1
S'dgp-et-as4'
p2
(dp3
Vansible_product_serial
p4
VNA
p5
sVansible_form_factor
p6
VOther
p7
sVansible_product_version
p8
VNone
p9
sVansible_swaptotal_mb
p10
I1023
sVansible_user_id
p11
Vyhekma
p12
sVmodule_setup
p13
I01
sVansible_userspace_bits
p14
V64
p15
sVansible_architecture
p16
Vx86_64
p17
sVansible_distribution_version
p18
V11
p19
sVansible_domain
p20
V
sVansible_virtualization_type
p21
VVMware
p22
sVansible_processor_cores
p23
I1
sVansible_virtualization_role
p24
Vguest
p25
sVansible_env
p26
(dp27
VLC_NUMERIC
p28
Vnl_NL.UTF-8
p29
sVLS_COLORS
p30
Vno=00:fi=00:di=01;34:ln=00;36:pi=40;33:so=01;35:do=01;35:bd=40;33;01:cd=40;33;01:or=41;33;01:ex=00;32:*.cmd=00;32:*.exe=01;32:*.com=01;32:*.bat=01;32:*.btm=01;32:*.dll=01;32:*.tar=00;31:*.tbz=00;31:*.tgz=00;31:*.rpm=00;31:*.deb=00;31:*.arj=00;31:*.taz=00;31:*.lzh=00;31:*.lzma=00;31:*.zip=00;31:*.zoo=00;31:*.z=00;31:*.Z=00;31:*.gz=00;31:*.bz2=00;31:*.tb2=00;31:*.tz2=00;31:*.tbz2=00;31:*.avi=01;35:*.bmp=01;35:*.fli=01;35:*.gif=01;35:*.jpg=01;35:*.jpeg=01;35:*.mng=01;35:*.mov=01;35:*.mpg=01;35:*.pcx=01;35:*.pbm=01;35:*.pgm=01;35:*.png=01;35:*.ppm=01;35:*.tga=01;35:*.tif=01;35:*.xbm=01;35:*.xpm=01;35:*.dl=01;35:*.gl=01;35:*.wmv=01;35:*.aiff=00;32:*.au=00;32:*.mid=00;32:*.mp3=00;32:*.ogg=00;32:*.voc=00;32:*.wav=00;32:
p31
sVLESS
p32
V-M -I
p33
sVMINICOM
p34
V-c on
p35
sVLC_CTYPE
p36
Ven_US.UTF-8
p37
sVHOSTTYPE
p38
Vx86_64
p39
sVLESSOPEN
p40
Vlessopen.sh %s
p41
sVQT_SYSTEM_DIR
p42
V/usr/share/desktop-data
p43
sVSSH_CLIENT
p44
V10.8.4.100 37439 22
p45
sVLOGNAME
p46
Vyhekma
p47
sVUSER
p48
Vyhekma
p49
sVINPUTRC
p50
V/home/yhekma/.inputrc
p51
sVPATH
p52
V/home/yhekma/bin:/usr/local/bin:/usr/bin:/bin:/usr/bin/X11:/usr/X11R6/bin:/usr/games:/usr/lib/mit/bin:/usr/lib/mit/sbin
p53
sVLC_PAPER
p54
Vnl_NL.UTF-8
p55
sVHOME
p56
V/home/yhekma
p57
sVCPU
p58
Vx86_64
p59
sVLANG
p60
Ven_US.UTF-8
p61
sVINFOPATH
p62
V/usr/local/info:/usr/share/info:/usr/info
p63
sVTERM
p64
Vscreen
p65
sVSHELL
p66
V/bin/bash
p67
sVLC_MONETARY
p68
Vnl_NL.UTF-8
p69
sVG_BROKEN_FILENAMES
p70
V1
sVHISTSIZE
p71
V1000
p72
sVLESS_ADVANCED_PREPROCESSOR
p73
Vno
p74
sVMANPATH
p75
V/usr/local/man:/usr/share/man
p76
sVOSTYPE
p77
Vlinux
p78
sVPROFILEREAD
p79
Vtrue
p80
sVXKEYSYMDB
p81
V/usr/share/X11/XKeysymDB
p82
sVNNTPSERVER
p83
Vnews
p84
sVINFODIR
p85
V/usr/local/info:/usr/share/info:/usr/info
p86
sVLC_ADDRESS
p87
Vnl_NL.UTF-8
p88
sVSSH_AUTH_SOCK
p89
V/tmp/ssh-suVq5L50xm/agent.13536
p90
sVXCURSOR_THEME
p91
V
sVCSHEDIT
p92
Vemacs
p93
sVG_FILENAME_ENCODING
p94
V@locale,UTF-8,ISO-8859-15,CP1252
p95
sVHOST
p96
Vdgp-et-as4
p97
sVFROM_HEADER
p98
V
sVENV
p99
V/etc/bash.bashrc
p100
sVLESSKEY
p101
V/etc/lesskey.bin
p102
sVXDG_CONFIG_DIRS
p103
V/etc/xdg
p104
sVLS_OPTIONS
p105
V-N --color=tty -T 0
p106
sVXNLSPATH
p107
V/usr/share/X11/nls
p108
sV_
V/usr/bin/python
p109
sVLC_MEASUREMENT
p110
Vnl_NL.UTF-8
p111
sVMACHTYPE
p112
Vx86_64-suse-linux
p113
sVLESSCLOSE
p114
Vlessclose.sh %s %s
p115
sVPYTHONSTARTUP
p116
V/etc/pythonstart
p117
sVSSH_TTY
p118
V/dev/pts/0
p119
sVHOSTNAME
p120
Vdgp-et-as4
p121
sVTMOUT
p122
V6000
p123
sVLC_TELEPHONE
p124
Vnl_NL.UTF-8
p125
sVSSH_SENDS_LOCALE
p126
Vyes
p127
sVSHLVL
p128
V2
sVPWD
p129
V/home/yhekma
p130
sVCOLORTERM
p131
V1
sVLC_NAME
p132
Vnl_NL.UTF-8
p133
sVMAIL
p134
V/var/mail/yhekma
p135
sVLC_TIME
p136
Vnl_NL.UTF-8
p137
sVSSH_CONNECTION
p138
V10.8.4.100 37439 10.8.4.24 22
p139
sVPAGER
p140
Vless
p141
sVXDG_DATA_DIRS
p142
V/usr/share
p143
sVMORE
p144
V-sl
p145
ssVansible_processor_vcpus
p146
I4
sVansible_bios_version
p147
V6.00
p148
sVansible_processor
p149
(lp150
VIntel(R) Xeon(R) CPU           E5620  @ 2.40GHz
p151
aVIntel(R) Xeon(R) CPU           E5620  @ 2.40GHz
p152
aVIntel(R) Xeon(R) CPU           E5620  @ 2.40GHz
p153
aVIntel(R) Xeon(R) CPU           E5620  @ 2.40GHz
p154
asVansible_date_time
p155
(dp156
Vtz
p157
VCEST
p158
sVhour
p159
V13
p160
sVtime
p161
V13:00:49
p162
sVtz_offset
p163
V+0200
p164
sVmonth
p165
V09
p166
sVepoch
p167
V1410951649
p168
sViso8601_micro
p169
V2014-09-17T11:00:49.403112Z
p170
sVweekday
p171
Vwoensdag
p172
sVyear
p173
V2014
p174
sVdate
p175
V2014-09-17
p176
sViso8601
p177
V2014-09-17T11:00:49Z
p178
sVday
p179
V17
p180
sVminute
p181
V00
p182
sVsecond
p183
V49
p184
ssVansible_lo
p185
(dp186
Vpromisc
p187
I00
sVmtu
p188
I16436
sVactive
p189
I01
sVipv4_secondaries
p190
(lp191
(dp192
Vnetmask
p193
V255.0.0.0
p194
sVnetwork
p195
V127.0.0.0
p196
sVaddress
p197
V127.0.0.2
p198
sa(dp199
Vnetmask
p200
V255.0.0.0
p201
sVnetwork
p202
V127.0.0.0
p203
sVaddress
p204
V127.0.0.2
p205
sasVipv4
p206
(dp207
Vnetmask
p208
V255.0.0.0
p209
sVnetwork
p210
V127.0.0.0
p211
sVaddress
p212
V127.0.0.1
p213
ssVdevice
p214
Vlo
p215
sVtype
p216
Vloopback
p217
ssVansible_memtotal_mb
p218
I16014
sVansible_ssh_host_key_ecdsa_public
p219
VAAAAE2VjZHNhLXNoYTItbmlzdHAyNTYAAAAIbmlzdHAyNTYAAABBBCbaaAYpUl8eGAqCULsqoXc9y6eC4o/voSArTWkt1QH9ff8Sq1A9+rXnS3Ga3ZFxZDByWyCn4gzJ7JK9pv/JCtE=
p220
sVansible_default_ipv4
p221
(dp222
Vmacaddress
p223
V00:50:56:ad:24:7d
p224
sVnetwork
p225
V10.8.2.0
p226
sVmtu
p227
I1500
sValias
p228
Veth5
p229
sVnetmask
p230
V255.255.255.0
p231
sVaddress
p232
V10.8.2.24
p233
sVinterface
p234
Veth5
p235
sVtype
p236
Vether
p237
sVgateway
p238
V10.8.2.1
p239
ssVansible_swapfree_mb
p240
I996
sVansible_default_ipv6
p241
(dp242
sVansible_distribution_release
p243
V2
sVansible_system_vendor
p244
VVMware, Inc.
p245
sVansible_os_family
p246
VSuse
p247
sVansible_cmdline
p248
(dp249
Vresume
p250
V/dev/vg0/swap
p251
sVvga
p252
V0x314
p253
sVelevator
p254
Vnoop
p255
sVsplash
p256
Vsilent
p257
sVcrashkernel
p258
V128M-:64M
p259
sVroot
p260
V/dev/vg0/root
p261
ssVansible_selinux
p262
I00
sVansible_userspace_architecture
p263
Vx86_64
p264
sVansible_product_uuid
p265
VNA
p266
sVansible_system
p267
VLinux
p268
sVansible_pkg_mgr
p269
Vzypper
p270
sVansible_memfree_mb
p271
I1000
sVansible_devices
p272
(dp273
Vfd0
p274
(dp275
Vscheduler_mode
p276
Vnoop
p277
sVrotational
p278
V1
sVvendor
p279
NsVsectors
p280
V8
sVhost
p281
V
sVsectorsize
p282
V512
p283
sVremovable
p284
V1
sVsupport_discard
p285
V0
sVmodel
p286
NsVsize
p287
V4.00 KB
p288
sVholders
p289
(lp290
sVpartitions
p291
(dp292
ssVsr0
p293
(dp294
Vscheduler_mode
p295
Vnoop
p296
sVrotational
p297
V1
sVvendor
p298
VNECVMWar
p299
sVsectors
p300
V2097151
p301
sVhost
p302
VIDE interface: Intel Corporation 82371AB/EB/MB PIIX4 IDE (rev 01)
p303
sVsectorsize
p304
V512
p305
sVremovable
p306
V1
sVsupport_discard
p307
V0
sVmodel
p308
VVMware IDE CDR10
p309
sVsize
p310
V1024.00 MB
p311
sVholders
p312
(lp313
sVpartitions
p314
(dp315
ssVsda
p316
(dp317
Vscheduler_mode
p318
Vnoop
p319
sVrotational
p320
V1
sVvendor
p321
VVMware
p322
sVsectors
p323
V146800640
p324
sVhost
p325
VSCSI storage controller: LSI Logic / Symbios Logic 53c1030 PCI-X Fusion-MPT Dual Ultra320 SCSI (rev 01)
p326
sVsectorsize
p327
V512
p328
sVremovable
p329
V0
sVsupport_discard
p330
V0
sVmodel
p331
VVirtual disk
p332
sVsize
p333
V70.00 GB
p334
sVholders
p335
(lp336
sVpartitions
p337
(dp338
Vsda2
p339
(dp340
Vstart
p341
V1028096
p342
sVsectorsize
p343
I512
sVsectors
p344
V145772544
p345
sVsize
p346
V69.51 GB
p347
ssVsda1
p348
(dp349
Vstart
p350
V2048
p351
sVsectorsize
p352
I512
sVsectors
p353
V1026048
p354
sVsize
p355
V501.00 MB
p356
sssssVansible_distribution
p357
VSuse
p358
sVansible_ssh_host_key_dsa_public
p359
VAAAAB3NzaC1kc3MAAACBAMOB5JkqRbiNcF4qv+2TzNe/L9Yz+57pLmkdzK8hR+2RVV+bdrl+G5PZTOQx7a+jaaWTBP5NDV5dqLXQErNfhbgECpZtcM+ylottju7196ZD7OKRh5TGUbBRy6ABKa/GMEeYRPepx9H+rMRik+UfxX5+qHD4Ki4swuSfkR9CS9PvAAAAFQD2n4U1PhBa/KSMrl0zswCwlggKMwAAAIEAqP+N8K8GeIQ6U9y6tGEEckk4uRGi0EzVCX7AgMrkj85GkmseXWEsUm4rdwtGyuzry7pd0KbVDHb1TRA6CQgcoKyzF8+D8LyF7VyXKFSX+Ijsvnnlih5cMakBiJqwwuXlWT79LAEwGhrEUbx0VaWZHIA9l8A869wOIUq32nsyYooAAACBALFAVnnIs5g5cUOMITbd7wR5S8oZA0IiEtboSXFkl6G7kJINT9jR+DCJCw4LXCIcsr7J17EqK9vSwLDCufnMykXMKOp4GrimSX8W+CblLz+zpWOfXu9/YuhAI5yTt6j1bGAgt75J7fmGL7r2bG03/Xiyf5OWffZH79WCDEFWuzln
p360
sVansible_processor_count
p361
I4
sVansible_hostname
p362
Vdgp-et-as4
p363
sVansible_bios_date
p364
V07/09/2012
p365
sVansible_all_ipv6_addresses
p366
(lp367
sVansible_interfaces
p368
(lp369
Vlo
p370
aVeth5
p371
aVeth4
p372
aVeth3
p373
asVansible_machine
p374
Vx86_64
p375
sVansible_ssh_host_key_rsa_public
p376
VAAAAB3NzaC1yc2EAAAABIwAAAIEAsryMF/zftsOdZQEeF/9J2Bazh7Q6/78chMnxG2I4twLWpOpgrOAiqyvp7MfehPQrW0IIqUCxdqwjOP60lvqLt7La0hM9XIAPGBz0V0WBRg8Ua6Ovz+iql4GW+Jy6S6eBHgqL5ZXhWLkbPynG9eKxML5raO0ujaEjnGy7CVaUfxU=
p377
sVansible_eth4
p378
(dp379
Vmacaddress
p380
V00:50:56:ad:24:7e
p381
sVmodule
p382
Vvmxnet3
p383
sVmtu
p384
I1500
sVactive
p385
I01
sVpromisc
p386
I00
sVipv4
p387
(dp388
Vnetmask
p389
V255.255.255.0
p390
sVnetwork
p391
V10.8.3.0
p392
sVaddress
p393
V10.8.3.24
p394
ssVdevice
p395
Veth4
p396
sVtype
p397
Vether
p398
ssVansible_eth5
p399
(dp400
Vmacaddress
p401
V00:50:56:ad:24:7d
p402
sVmodule
p403
Vvmxnet3
p404
sVmtu
p405
I1500
sVactive
p406
I01
sVpromisc
p407
I00
sVipv4
p408
(dp409
Vnetmask
p410
V255.255.255.0
p411
sVnetwork
p412
V10.8.2.0
p413
sVaddress
p414
V10.8.2.24
p415
ssVdevice
p416
Veth5
p417
sVtype
p418
Vether
p419
ssVansible_fqdn
p420
Vdgp-et-as4
p421
sVansible_mounts
p422
(lp423
(dp424
Vsize_total
p425
I8987635712
sVmount
p426
V/
sVsize_available
p427
I1912639488
sVfstype
p428
Vext3
p429
sVdevice
p430
V/dev/mapper/vg0-root
p431
sVoptions
p432
Vrw,acl,user_xattr
p433
sa(dp434
Vsize_total
p435
I508728320
sVmount
p436
V/boot
p437
sVsize_available
p438
I427868160
sVfstype
p439
Vext3
p440
sVdevice
p441
V/dev/sda1
p442
sVoptions
p443
Vrw,acl,user_xattr
p444
sa(dp445
Vsize_total
p446
I10568916992
sVmount
p447
V/var/log/IBM
p448
sVsize_available
p449
I7243579392
sVfstype
p450
Vext3
p451
sVdevice
p452
V/dev/mapper/vg0-loglv
p453
sVoptions
p454
Vrw,acl,user_xattr
p455
sa(dp456
Vsize_total
p457
I52844687360
sVmount
p458
V/opt
p459
sVsize_available
p460
I4944695296
sVfstype
p461
Vext3
p462
sVdevice
p463
V/dev/mapper/vg0-swlv
p464
sVoptions
p465
Vrw,acl,user_xattr
p466
sasVansible_kernel
p467
V3.0.101-0.8-default
p468
sVansible_python_version
p469
V2.6.8
p470
sVansible_product_name
p471
VVMware Virtual Platform
p472
sVansible_eth3
p473
(dp474
Vmacaddress
p475
V00:50:56:ad:24:7c
p476
sVmodule
p477
Vvmxnet3
p478
sVmtu
p479
I1500
sVactive
p480
I01
sVpromisc
p481
I00
sVipv4
p482
(dp483
Vnetmask
p484
V255.255.255.0
p485
sVnetwork
p486
V10.8.4.0
p487
sVaddress
p488
V10.8.4.24
p489
ssVdevice
p490
Veth3
p491
sVtype
p492
Vether
p493
ssVansible_distribution_major_version
p494
V11
p495
sVansible_processor_threads_per_core
p496
I1
sVansible_all_ipv4_addresses
p497
(lp498
V10.8.4.24
p499
aV10.8.2.24
p500
aV10.8.3.24
p501
asVansible_nodename
p502
Vdgp-et-as4
p503
ssS'dgp-et-as5'
p504
(dp505
Vansible_product_serial
p506
VNA
p507
sVansible_form_factor
p508
VOther
p509
sVansible_product_version
p510
VNone
p511
sVansible_swaptotal_mb
p512
I1023
sVansible_user_id
p513
Vyhekma
p514
sVmodule_setup
p515
I01
sVansible_userspace_bits
p516
V64
p517
sVansible_eth2
p518
(dp519
Vmacaddress
p520
V00:50:56:ad:02:a7
p521
sVmodule
p522
Vvmxnet3
p523
sVmtu
p524
I1500
sVactive
p525
I01
sVpromisc
p526
I00
sVipv4
p527
(dp528
Vnetmask
p529
V255.255.255.0
p530
sVnetwork
p531
V10.8.4.0
p532
sVaddress
p533
V10.8.4.25
p534
ssVdevice
p535
Veth2
p536
sVtype
p537
Vether
p538
ssVansible_architecture
p539
Vx86_64
p540
sVansible_distribution_version
p541
V11
p542
sVansible_domain
p543
V
sVansible_virtualization_type
p544
VVMware
p545
sVansible_python_version
p546
V2.6.8
p547
sVansible_processor_cores
p548
I1
sVansible_virtualization_role
p549
Vguest
p550
sVansible_env
p551
(dp552
VLC_NUMERIC
p553
Vnl_NL.UTF-8
p554
sVLS_COLORS
p555
Vno=00:fi=00:di=01;34:ln=00;36:pi=40;33:so=01;35:do=01;35:bd=40;33;01:cd=40;33;01:or=41;33;01:ex=00;32:*.cmd=00;32:*.exe=01;32:*.com=01;32:*.bat=01;32:*.btm=01;32:*.dll=01;32:*.tar=00;31:*.tbz=00;31:*.tgz=00;31:*.rpm=00;31:*.deb=00;31:*.arj=00;31:*.taz=00;31:*.lzh=00;31:*.lzma=00;31:*.zip=00;31:*.zoo=00;31:*.z=00;31:*.Z=00;31:*.gz=00;31:*.bz2=00;31:*.tb2=00;31:*.tz2=00;31:*.tbz2=00;31:*.avi=01;35:*.bmp=01;35:*.fli=01;35:*.gif=01;35:*.jpg=01;35:*.jpeg=01;35:*.mng=01;35:*.mov=01;35:*.mpg=01;35:*.pcx=01;35:*.pbm=01;35:*.pgm=01;35:*.png=01;35:*.ppm=01;35:*.tga=01;35:*.tif=01;35:*.xbm=01;35:*.xpm=01;35:*.dl=01;35:*.gl=01;35:*.wmv=01;35:*.aiff=00;32:*.au=00;32:*.mid=00;32:*.mp3=00;32:*.ogg=00;32:*.voc=00;32:*.wav=00;32:
p556
sVLESS
p557
V-M -I
p558
sVMINICOM
p559
V-c on
p560
sVLC_CTYPE
p561
Ven_US.UTF-8
p562
sVHOSTTYPE
p563
Vx86_64
p564
sVLESSOPEN
p565
Vlessopen.sh %s
p566
sVQT_SYSTEM_DIR
p567
V/usr/share/desktop-data
p568
sVSSH_CLIENT
p569
V10.8.4.100 43714 22
p570
sVLOGNAME
p571
Vyhekma
p572
sVUSER
p573
Vyhekma
p574
sVINPUTRC
p575
V/home/yhekma/.inputrc
p576
sVPATH
p577
V/home/yhekma/bin:/usr/local/bin:/usr/bin:/bin:/usr/bin/X11:/usr/X11R6/bin:/usr/games:/usr/lib/mit/bin:/usr/lib/mit/sbin
p578
sVLC_PAPER
p579
Vnl_NL.UTF-8
p580
sVHOME
p581
V/home/yhekma
p582
sVCPU
p583
Vx86_64
p584
sVLANG
p585
Ven_US.UTF-8
p586
sVINFOPATH
p587
V/usr/local/info:/usr/share/info:/usr/info
p588
sVTERM
p589
Vscreen
p590
sVSHELL
p591
V/bin/bash
p592
sVLC_MONETARY
p593
Vnl_NL.UTF-8
p594
sVG_BROKEN_FILENAMES
p595
V1
sVHISTSIZE
p596
V1000
p597
sVLESS_ADVANCED_PREPROCESSOR
p598
Vno
p599
sVMANPATH
p600
V/usr/local/man:/usr/share/man
p601
sVOSTYPE
p602
Vlinux
p603
sVPROFILEREAD
p604
Vtrue
p605
sVXKEYSYMDB
p606
V/usr/share/X11/XKeysymDB
p607
sVNNTPSERVER
p608
Vnews
p609
sVINFODIR
p610
V/usr/local/info:/usr/share/info:/usr/info
p611
sVLC_ADDRESS
p612
Vnl_NL.UTF-8
p613
sVSSH_AUTH_SOCK
p614
V/tmp/ssh-qL6EkVnbnZ/agent.25203
p615
sVXCURSOR_THEME
p616
V
sVCSHEDIT
p617
Vemacs
p618
sVG_FILENAME_ENCODING
p619
V@locale,UTF-8,ISO-8859-15,CP1252
p620
sVHOST
p621
Vdgp-et-as5
p622
sVFROM_HEADER
p623
V
sVENV
p624
V/etc/bash.bashrc
p625
sVLESSKEY
p626
V/etc/lesskey.bin
p627
sVXDG_CONFIG_DIRS
p628
V/etc/xdg
p629
sVLS_OPTIONS
p630
V-N --color=tty -T 0
p631
sVXNLSPATH
p632
V/usr/share/X11/nls
p633
sV_
V/usr/bin/python
p634
sVLC_MEASUREMENT
p635
Vnl_NL.UTF-8
p636
sVMACHTYPE
p637
Vx86_64-suse-linux
p638
sVLESSCLOSE
p639
Vlessclose.sh %s %s
p640
sVPYTHONSTARTUP
p641
V/etc/pythonstart
p642
sVSSH_TTY
p643
V/dev/pts/0
p644
sVHOSTNAME
p645
Vdgp-et-as5
p646
sVTMOUT
p647
V6000
p648
sVLC_TELEPHONE
p649
Vnl_NL.UTF-8
p650
sVSSH_SENDS_LOCALE
p651
Vyes
p652
sVSHLVL
p653
V2
sVPWD
p654
V/home/yhekma
p655
sVCOLORTERM
p656
V1
sVLC_NAME
p657
Vnl_NL.UTF-8
p658
sVMAIL
p659
V/var/mail/yhekma
p660
sVLC_TIME
p661
Vnl_NL.UTF-8
p662
sVSSH_CONNECTION
p663
V10.8.4.100 43714 10.8.4.25 22
p664
sVPAGER
p665
Vless
p666
sVXDG_DATA_DIRS
p667
V/usr/share
p668
sVMORE
p669
V-sl
p670
ssVansible_processor_vcpus
p671
I4
sVansible_bios_version
p672
V6.00
p673
sVansible_processor
p674
(lp675
VIntel(R) Xeon(R) CPU           E5645  @ 2.40GHz
p676
aVIntel(R) Xeon(R) CPU           E5645  @ 2.40GHz
p677
aVIntel(R) Xeon(R) CPU           E5645  @ 2.40GHz
p678
aVIntel(R) Xeon(R) CPU           E5645  @ 2.40GHz
p679
asVansible_date_time
p680
(dp681
Vtz
p682
VCEST
p683
sVhour
p684
V13
p685
sVtime
p686
V13:00:49
p687
sVtz_offset
p688
V+0200
p689
sVmonth
p690
V09
p691
sVepoch
p692
V1410951649
p693
sViso8601_micro
p694
V2014-09-17T11:00:49.354840Z
p695
sVweekday
p696
Vwoensdag
p697
sVyear
p698
V2014
p699
sVdate
p700
V2014-09-17
p701
sViso8601
p702
V2014-09-17T11:00:49Z
p703
sVday
p704
V17
p705
sVminute
p706
V00
p707
sVsecond
p708
V49
p709
ssVansible_lo
p710
(dp711
Vpromisc
p712
I00
sVmtu
p713
I16436
sVactive
p714
I01
sVipv4_secondaries
p715
(lp716
(dp717
Vnetmask
p718
V255.0.0.0
p719
sVnetwork
p720
V127.0.0.0
p721
sVaddress
p722
V127.0.0.2
p723
sa(dp724
Vnetmask
p725
V255.0.0.0
p726
sVnetwork
p727
V127.0.0.0
p728
sVaddress
p729
V127.0.0.2
p730
sasVipv4
p731
(dp732
Vnetmask
p733
V255.0.0.0
p734
sVnetwork
p735
V127.0.0.0
p736
sVaddress
p737
V127.0.0.1
p738
ssVdevice
p739
Vlo
p740
sVtype
p741
Vloopback
p742
ssVansible_memtotal_mb
p743
I16014
sVansible_ssh_host_key_ecdsa_public
p744
VAAAAE2VjZHNhLXNoYTItbmlzdHAyNTYAAAAIbmlzdHAyNTYAAABBBM1RPxDlc05Y3AeWpxi2Pv3q8Z/ujn/jaLxz7TqIMvdZXbCCQfPDf55nsIZbP8E0qVe3tUFUIod/J76HGq0ww2E=
p745
sVansible_default_ipv4
p746
(dp747
Vmacaddress
p748
V00:50:56:ad:02:a5
p749
sVnetwork
p750
V10.8.2.0
p751
sVmtu
p752
I1500
sValias
p753
Veth3
p754
sVnetmask
p755
V255.255.255.0
p756
sVaddress
p757
V10.8.2.25
p758
sVinterface
p759
Veth3
p760
sVtype
p761
Vether
p762
sVgateway
p763
V10.8.2.1
p764
ssVansible_swapfree_mb
p765
I1023
sVansible_default_ipv6
p766
(dp767
sVansible_distribution_release
p768
V3
sVansible_system_vendor
p769
VVMware, Inc.
p770
sVansible_os_family
p771
VSuse
p772
sVansible_cmdline
p773
(dp774
Vresume
p775
V/dev/vg0/swap
p776
sVvga
p777
V0x314
p778
sVelevator
p779
Vnoop
p780
sVsplash
p781
Vsilent
p782
sVcrashkernel
p783
V128M-:64M
p784
sVroot
p785
V/dev/vg0/root
p786
ssVansible_selinux
p787
I00
sVansible_userspace_architecture
p788
Vx86_64
p789
sVansible_product_uuid
p790
VNA
p791
sVansible_product_name
p792
VVMware Virtual Platform
p793
sVansible_pkg_mgr
p794
Vzypper
p795
sVansible_memfree_mb
p796
I12436
sVansible_devices
p797
(dp798
Vfd0
p799
(dp800
Vscheduler_mode
p801
Vnoop
p802
sVrotational
p803
V1
sVvendor
p804
NsVsectors
p805
V8
sVhost
p806
V
sVsectorsize
p807
V512
p808
sVremovable
p809
V1
sVsupport_discard
p810
V0
sVmodel
p811
NsVsize
p812
V4.00 KB
p813
sVholders
p814
(lp815
sVpartitions
p816
(dp817
ssVsr0
p818
(dp819
Vscheduler_mode
p820
Vnoop
p821
sVrotational
p822
V1
sVvendor
p823
VNECVMWar
p824
sVsectors
p825
V2097151
p826
sVhost
p827
VIDE interface: Intel Corporation 82371AB/EB/MB PIIX4 IDE (rev 01)
p828
sVsectorsize
p829
V512
p830
sVremovable
p831
V1
sVsupport_discard
p832
V0
sVmodel
p833
VVMware IDE CDR10
p834
sVsize
p835
V1024.00 MB
p836
sVholders
p837
(lp838
sVpartitions
p839
(dp840
ssVsda
p841
(dp842
Vscheduler_mode
p843
Vnoop
p844
sVrotational
p845
V1
sVvendor
p846
VVMware
p847
sVsectors
p848
V146800640
p849
sVhost
p850
VSCSI storage controller: LSI Logic / Symbios Logic 53c1030 PCI-X Fusion-MPT Dual Ultra320 SCSI (rev 01)
p851
sVsectorsize
p852
V512
p853
sVremovable
p854
V0
sVsupport_discard
p855
V0
sVmodel
p856
VVirtual disk
p857
sVsize
p858
V70.00 GB
p859
sVholders
p860
(lp861
sVpartitions
p862
(dp863
Vsda2
p864
(dp865
Vstart
p866
V1044225
p867
sVsectorsize
p868
I512
sVsectors
p869
V145741680
p870
sVsize
p871
V69.50 GB
p872
ssVsda1
p873
(dp874
Vstart
p875
V63
p876
sVsectorsize
p877
I512
sVsectors
p878
V1044162
p879
sVsize
p880
V509.84 MB
p881
sssssVansible_distribution
p882
VSuse
p883
sVansible_ssh_host_key_dsa_public
p884
VAAAAB3NzaC1kc3MAAACBALi4SJbbYfupCwr2jhShxPQb0g5l+l+QbeadNzuni90uPhbOAT+LzUHHNc+fnvRmaaSy98tPvhrVHM0lrwkJitvcwrF0krRVmyPq0PYoUe9V+Piw8M4a41IiWRMmTtUixMTtP6Enzb1HJRxN/cfyQ22/aFyyYbpeRlTCeWGO/RpbAAAAFQCRwgVifmeX51AinXg2pMUir85RBwAAAIBkoqefA5dwY8rSS0qMZyP9yaEil1tQtVBt0cyfiGzpcmW4SsT4IoszdVMxSxMMlXRvsvigEEYG8sBR9lGAFQb74N2aJOlEEeEqfel5i89ohAs8cGC2fiDJstijZIVIb28IU+/mD20qsnqSTWTIi3T780SAacLEUp6pz0+DIRfcFAAAAIEAtGz6hZ58yS5IeznI0Dtr65tS142wtYYWrx+6gTkxseb3Cjabs16QLGT/XLXI1aED6iCucDLjHHjJydm7Hs2p2anvjegTirFYM/q40Hx1rXWvhxou57KHX6/FtC90iqQVXpAhxjmB/E0D841fqHAOUp0TINJD07pTYNhpGg6AYn8=
p885
sVansible_processor_count
p886
I4
sVansible_hostname
p887
Vdgp-et-as5
p888
sVansible_bios_date
p889
V02/22/2012
p890
sVansible_all_ipv6_addresses
p891
(lp892
sVansible_interfaces
p893
(lp894
Vlo
p895
aVeth3
p896
aVeth2
p897
aVeth1
p898
asVansible_machine
p899
Vx86_64
p900
sVansible_ssh_host_key_rsa_public
p901
VAAAAB3NzaC1yc2EAAAABIwAAAIEA2NXJRdMR76O3VTnYtwEcOQs2Q6A1OeOyhitJtu5rnthxiOQqDzCb80tzwZMlV5NCZwnHtwCAOcXjenV8v87iWFiibM745R0kEmBuXjUg63zi3ReViMtPVzLGddRIzor56rVCWRSngQOxl8zFx0cmBOeKYJU05bnL9QUao/zDx98=
p902
sVansible_kernel
p903
V3.0.101-0.8-default
p904
sVansible_processor_threads_per_core
p905
I1
sVansible_fqdn
p906
Vdgp-et-as5
p907
sVansible_mounts
p908
(lp909
(dp910
Vsize_total
p911
I8979374080
sVmount
p912
V/
sVsize_available
p913
I4621975552
sVfstype
p914
Vext3
p915
sVdevice
p916
V/dev/mapper/vg0-root
p917
sVoptions
p918
Vrw,acl,user_xattr
p919
sa(dp920
Vsize_total
p921
I517738496
sVmount
p922
V/boot
p923
sVsize_available
p924
I439727104
sVfstype
p925
Vext3
p926
sVdevice
p927
V/dev/sda1
p928
sVoptions
p929
Vrw,acl,user_xattr
p930
sa(dp931
Vsize_total
p932
I10568916992
sVmount
p933
V/var/log/IBM
p934
sVsize_available
p935
I9874112512
sVfstype
p936
Vext3
p937
sVdevice
p938
V/dev/mapper/vg0-loglv
p939
sVoptions
p940
Vrw,acl,user_xattr
p941
sa(dp942
Vsize_total
p943
I47560245248
sVmount
p944
V/opt
p945
sVsize_available
p946
I31014027264
sVfstype
p947
Vext3
p948
sVdevice
p949
V/dev/mapper/vg0-swlv
p950
sVoptions
p951
Vrw,acl,user_xattr
p952
sasVansible_eth1
p953
(dp954
Vmacaddress
p955
V00:50:56:ad:02:a6
p956
sVmodule
p957
Vvmxnet3
p958
sVmtu
p959
I1500
sVactive
p960
I01
sVpromisc
p961
I00
sVipv4
p962
(dp963
Vnetmask
p964
V255.255.255.0
p965
sVnetwork
p966
V10.8.3.0
p967
sVaddress
p968
V10.8.3.25
p969
ssVdevice
p970
Veth1
p971
sVtype
p972
Vether
p973
ssVansible_system
p974
VLinux
p975
sVansible_eth3
p976
(dp977
Vmacaddress
p978
V00:50:56:ad:02:a5
p979
sVmodule
p980
Vvmxnet3
p981
sVmtu
p982
I1500
sVactive
p983
I01
sVpromisc
p984
I00
sVipv4
p985
(dp986
Vnetmask
p987
V255.255.255.0
p988
sVnetwork
p989
V10.8.2.0
p990
sVaddress
p991
V10.8.2.25
p992
ssVdevice
p993
Veth3
p994
sVtype
p995
Vether
p996
ssVansible_distribution_major_version
p997
V11
p998
sVansible_all_ipv4_addresses
p999
(lp1000
V10.8.2.25
p1001
aV10.8.3.25
p1002
aV10.8.4.25
p1003
asVansible_nodename
p1004
Vdgp-et-as5
p1005
ssS'dgp-et-as1'
p1006
(dp1007
Vansible_product_serial
p1008
VNA
p1009
sVansible_form_factor
p1010
VOther
p1011
sVansible_product_version
p1012
VNone
p1013
sVansible_swaptotal_mb
p1014
I1023
sVansible_user_id
p1015
Vyhekma
p1016
sVmodule_setup
p1017
I01
sVansible_userspace_bits
p1018
V64
p1019
sVansible_architecture
p1020
Vx86_64
p1021
sVansible_distribution_version
p1022
V11
p1023
sVansible_domain
p1024
V
sVansible_virtualization_type
p1025
VVMware
p1026
sVansible_python_version
p1027
V2.6.8
p1028
sVansible_processor_cores
p1029
I1
sVansible_virtualization_role
p1030
Vguest
p1031
sVansible_env
p1032
(dp1033
VLC_NUMERIC
p1034
Vnl_NL.UTF-8
p1035
sVLS_COLORS
p1036
Vno=00:fi=00:di=01;34:ln=00;36:pi=40;33:so=01;35:do=01;35:bd=40;33;01:cd=40;33;01:or=41;33;01:ex=00;32:*.cmd=00;32:*.exe=01;32:*.com=01;32:*.bat=01;32:*.btm=01;32:*.dll=01;32:*.tar=00;31:*.tbz=00;31:*.tgz=00;31:*.rpm=00;31:*.deb=00;31:*.arj=00;31:*.taz=00;31:*.lzh=00;31:*.lzma=00;31:*.zip=00;31:*.zoo=00;31:*.z=00;31:*.Z=00;31:*.gz=00;31:*.bz2=00;31:*.tb2=00;31:*.tz2=00;31:*.tbz2=00;31:*.avi=01;35:*.bmp=01;35:*.fli=01;35:*.gif=01;35:*.jpg=01;35:*.jpeg=01;35:*.mng=01;35:*.mov=01;35:*.mpg=01;35:*.pcx=01;35:*.pbm=01;35:*.pgm=01;35:*.png=01;35:*.ppm=01;35:*.tga=01;35:*.tif=01;35:*.xbm=01;35:*.xpm=01;35:*.dl=01;35:*.gl=01;35:*.wmv=01;35:*.aiff=00;32:*.au=00;32:*.mid=00;32:*.mp3=00;32:*.ogg=00;32:*.voc=00;32:*.wav=00;32:
p1037
sVLESS
p1038
V-M -I
p1039
sVMINICOM
p1040
V-c on
p1041
sVLC_CTYPE
p1042
Ven_US.UTF-8
p1043
sVHOSTTYPE
p1044
Vx86_64
p1045
sVLESSOPEN
p1046
Vlessopen.sh %s
p1047
sVQT_SYSTEM_DIR
p1048
V/usr/share/desktop-data
p1049
sVSSH_CLIENT
p1050
V10.8.4.100 44004 22
p1051
sVLOGNAME
p1052
Vyhekma
p1053
sVUSER
p1054
Vyhekma
p1055
sVINPUTRC
p1056
V/home/yhekma/.inputrc
p1057
sVPATH
p1058
V/home/yhekma/bin:/usr/local/bin:/usr/bin:/bin:/usr/bin/X11:/usr/X11R6/bin:/usr/games:/usr/lib/mit/bin:/usr/lib/mit/sbin
p1059
sVLC_PAPER
p1060
Vnl_NL.UTF-8
p1061
sVHOME
p1062
V/home/yhekma
p1063
sVCPU
p1064
Vx86_64
p1065
sVLANG
p1066
Ven_US.UTF-8
p1067
sVINFOPATH
p1068
V/usr/local/info:/usr/share/info:/usr/info
p1069
sVTERM
p1070
Vscreen
p1071
sVSHELL
p1072
V/bin/bash
p1073
sVLC_MONETARY
p1074
Vnl_NL.UTF-8
p1075
sVG_BROKEN_FILENAMES
p1076
V1
sVHISTSIZE
p1077
V1000
p1078
sVLESS_ADVANCED_PREPROCESSOR
p1079
Vno
p1080
sVMANPATH
p1081
V/usr/local/man:/usr/share/man
p1082
sVOSTYPE
p1083
Vlinux
p1084
sVPROFILEREAD
p1085
Vtrue
p1086
sVXKEYSYMDB
p1087
V/usr/share/X11/XKeysymDB
p1088
sVNNTPSERVER
p1089
Vnews
p1090
sVINFODIR
p1091
V/usr/local/info:/usr/share/info:/usr/info
p1092
sVLC_ADDRESS
p1093
Vnl_NL.UTF-8
p1094
sVSSH_AUTH_SOCK
p1095
V/tmp/ssh-1mX6zEyjPY/agent.29438
p1096
sVXCURSOR_THEME
p1097
V
sVCSHEDIT
p1098
Vemacs
p1099
sVG_FILENAME_ENCODING
p1100
V@locale,UTF-8,ISO-8859-15,CP1252
p1101
sVHOST
p1102
Vdgp-et-as1
p1103
sVFROM_HEADER
p1104
V
sVENV
p1105
V/etc/bash.bashrc
p1106
sVLESSKEY
p1107
V/etc/lesskey.bin
p1108
sVXDG_CONFIG_DIRS
p1109
V/etc/xdg
p1110
sVLS_OPTIONS
p1111
V-N --color=tty -T 0
p1112
sVXNLSPATH
p1113
V/usr/share/X11/nls
p1114
sV_
V/usr/bin/python
p1115
sVLC_MEASUREMENT
p1116
Vnl_NL.UTF-8
p1117
sVMACHTYPE
p1118
Vx86_64-suse-linux
p1119
sVLESSCLOSE
p1120
Vlessclose.sh %s %s
p1121
sVPYTHONSTARTUP
p1122
V/etc/pythonstart
p1123
sVSSH_TTY
p1124
V/dev/pts/1
p1125
sVHOSTNAME
p1126
Vdgp-et-as1
p1127
sVTMOUT
p1128
V6000
p1129
sVLC_TELEPHONE
p1130
Vnl_NL.UTF-8
p1131
sVSSH_SENDS_LOCALE
p1132
Vyes
p1133
sVSHLVL
p1134
V2
sVPWD
p1135
V/home/yhekma
p1136
sVCOLORTERM
p1137
V1
sVLC_NAME
p1138
Vnl_NL.UTF-8
p1139
sVMAIL
p1140
V/var/mail/yhekma
p1141
sVLC_TIME
p1142
Vnl_NL.UTF-8
p1143
sVSSH_CONNECTION
p1144
V10.8.4.100 44004 10.8.4.21 22
p1145
sVPAGER
p1146
Vless
p1147
sVXDG_DATA_DIRS
p1148
V/usr/share
p1149
sVMORE
p1150
V-sl
p1151
ssVansible_processor_vcpus
p1152
I4
sVansible_bios_version
p1153
V6.00
p1154
sVansible_processor
p1155
(lp1156
VIntel(R) Xeon(R) CPU           E5645  @ 2.40GHz
p1157
aVIntel(R) Xeon(R) CPU           E5645  @ 2.40GHz
p1158
aVIntel(R) Xeon(R) CPU           E5645  @ 2.40GHz
p1159
aVIntel(R) Xeon(R) CPU           E5645  @ 2.40GHz
p1160
asVansible_date_time
p1161
(dp1162
Vtz
p1163
VCEST
p1164
sVhour
p1165
V13
p1166
sVtime
p1167
V13:00:49
p1168
sVtz_offset
p1169
V+0200
p1170
sVmonth
p1171
V09
p1172
sVepoch
p1173
V1410951649
p1174
sViso8601_micro
p1175
V2014-09-17T11:00:49.432753Z
p1176
sVweekday
p1177
Vwoensdag
p1178
sVyear
p1179
V2014
p1180
sVdate
p1181
V2014-09-17
p1182
sViso8601
p1183
V2014-09-17T11:00:49Z
p1184
sVday
p1185
V17
p1186
sVminute
p1187
V00
p1188
sVsecond
p1189
V49
p1190
ssVansible_lo
p1191
(dp1192
Vpromisc
p1193
I00
sVmtu
p1194
I16436
sVactive
p1195
I01
sVipv4_secondaries
p1196
(lp1197
(dp1198
Vnetmask
p1199
V255.0.0.0
p1200
sVnetwork
p1201
V127.0.0.0
p1202
sVaddress
p1203
V127.0.0.2
p1204
sa(dp1205
Vnetmask
p1206
V255.0.0.0
p1207
sVnetwork
p1208
V127.0.0.0
p1209
sVaddress
p1210
V127.0.0.2
p1211
sasVipv4
p1212
(dp1213
Vnetmask
p1214
V255.0.0.0
p1215
sVnetwork
p1216
V127.0.0.0
p1217
sVaddress
p1218
V127.0.0.1
p1219
ssVdevice
p1220
Vlo
p1221
sVtype
p1222
Vloopback
p1223
ssVansible_memtotal_mb
p1224
I16014
sVansible_ssh_host_key_ecdsa_public
p1225
VAAAAE2VjZHNhLXNoYTItbmlzdHAyNTYAAAAIbmlzdHAyNTYAAABBBJ/L0zHm0oWZBpw8fV6/E8gY7XXuxe8qLEv+IH2e5ol6Wt0L+ET2YcGG+fYL9PPUUOROaQS+8jPSewNujmJQ/lg=
p1226
sVansible_default_ipv4
p1227
(dp1228
Vmacaddress
p1229
V00:50:56:ad:69:18
p1230
sVnetwork
p1231
V10.8.2.0
p1232
sVmtu
p1233
I1500
sValias
p1234
Veth0
p1235
sVnetmask
p1236
V255.255.255.0
p1237
sVaddress
p1238
V10.8.2.21
p1239
sVinterface
p1240
Veth0
p1241
sVtype
p1242
Vether
p1243
sVgateway
p1244
V10.8.2.1
p1245
ssVansible_swapfree_mb
p1246
I1001
sVansible_default_ipv6
p1247
(dp1248
sVansible_distribution_release
p1249
V3
sVansible_system_vendor
p1250
VVMware, Inc.
p1251
sVansible_os_family
p1252
VSuse
p1253
sVansible_cmdline
p1254
(dp1255
Vresume
p1256
V/dev/vg0/swap
p1257
sVvga
p1258
V0x314
p1259
sVelevator
p1260
Vnoop
p1261
sVsplash
p1262
Vsilent
p1263
sVcrashkernel
p1264
V128M-:64M
p1265
sVroot
p1266
V/dev/vg0/root
p1267
ssVansible_selinux
p1268
I00
sVansible_userspace_architecture
p1269
Vx86_64
p1270
sVansible_product_uuid
p1271
VNA
p1272
sVansible_product_name
p1273
VVMware Virtual Platform
p1274
sVansible_pkg_mgr
p1275
Vzypper
p1276
sVansible_memfree_mb
p1277
I933
sVansible_system
p1278
VLinux
p1279
sVansible_devices
p1280
(dp1281
Vfd0
p1282
(dp1283
Vscheduler_mode
p1284
Vnoop
p1285
sVrotational
p1286
V1
sVvendor
p1287
NsVsectors
p1288
V8
sVhost
p1289
V
sVsectorsize
p1290
V512
p1291
sVremovable
p1292
V1
sVsupport_discard
p1293
V0
sVmodel
p1294
NsVsize
p1295
V4.00 KB
p1296
sVholders
p1297
(lp1298
sVpartitions
p1299
(dp1300
ssVsr0
p1301
(dp1302
Vscheduler_mode
p1303
Vnoop
p1304
sVrotational
p1305
V1
sVvendor
p1306
VNECVMWar
p1307
sVsectors
p1308
V2097151
p1309
sVhost
p1310
VIDE interface: Intel Corporation 82371AB/EB/MB PIIX4 IDE (rev 01)
p1311
sVsectorsize
p1312
V512
p1313
sVremovable
p1314
V1
sVsupport_discard
p1315
V0
sVmodel
p1316
VVMware IDE CDR10
p1317
sVsize
p1318
V1024.00 MB
p1319
sVholders
p1320
(lp1321
sVpartitions
p1322
(dp1323
ssVsda
p1324
(dp1325
Vscheduler_mode
p1326
Vnoop
p1327
sVrotational
p1328
V1
sVvendor
p1329
VVMware
p1330
sVsectors
p1331
V146800640
p1332
sVhost
p1333
VSCSI storage controller: LSI Logic / Symbios Logic 53c1030 PCI-X Fusion-MPT Dual Ultra320 SCSI (rev 01)
p1334
sVsectorsize
p1335
V512
p1336
sVremovable
p1337
V0
sVsupport_discard
p1338
V0
sVmodel
p1339
VVirtual disk
p1340
sVsize
p1341
V70.00 GB
p1342
sVholders
p1343
(lp1344
sVpartitions
p1345
(dp1346
Vsda2
p1347
(dp1348
Vstart
p1349
V1028096
p1350
sVsectorsize
p1351
I512
sVsectors
p1352
V145772544
p1353
sVsize
p1354
V69.51 GB
p1355
ssVsda1
p1356
(dp1357
Vstart
p1358
V2048
p1359
sVsectorsize
p1360
I512
sVsectors
p1361
V1026048
p1362
sVsize
p1363
V501.00 MB
p1364
sssssVansible_distribution
p1365
VSuse
p1366
sVansible_ssh_host_key_dsa_public
p1367
VAAAAB3NzaC1kc3MAAACBANQn38Al2+wMcuDsh2I75v3q3TNPbCRd2Fb163KM2Bf58cSTK2X3D8ffrdt3K0uAvSZi7zPktGt5whiXzu3LEoEKE4RgxUWRI6Fgwqox5uxwoyJ8gcHJ6HZC/V4HyOGzMiPDwJXGRXDJq5xkrF205ujwoVRBxqLWsoD4x7rZQ6JPAAAAFQCtxZdP84iIA1UwqP3GACIQmLRuiwAAAIEAg6M8HS1nfwdx25F1KXQsaq5rAcDWI/mD83tyHxv611po1oThNqyC4PLdU5MBQf5zpToIgoalPfXgdOfbWhgjVn6B2y8cJF3/GJMQkcrtswFp2N5tHQfzla/f6F40mFS1degH6JRWYlGv9VCEu4F/wiiTYYr6PVDhyldDA3ufLr4AAACANcN6XvQc3L00sL6lpiRzXUhZo+ycaoh3Hy3dWlPghWyNBfgT1T+CzE69DnyD1qSMzmN9P+QN+aOJH3lz0q5AOgV+qB9i5DyyvVSoHrLbw0f7Zg2YitqNxs96jnmv7GXBk695QS0XjQ4eUuS/oSlYOLPAM79NeBfj4eVjoJ4c6ww=
p1368
sVansible_processor_count
p1369
I4
sVansible_hostname
p1370
Vdgp-et-as1
p1371
sVansible_bios_date
p1372
V07/09/2012
p1373
sVansible_all_ipv6_addresses
p1374
(lp1375
sVansible_interfaces
p1376
(lp1377
Vlo
p1378
aVeth2
p1379
aVeth1
p1380
aVeth0
p1381
asVansible_machine
p1382
Vx86_64
p1383
sVansible_ssh_host_key_rsa_public
p1384
VAAAAB3NzaC1yc2EAAAABIwAAAIEApzMm8ZnqJxxhzTmDmCQlkhwlfj1pPXznWc41z/6PnXI8P6DWjAiQ3bYGcK8t6mi9EIXZvQ4wBOrjIrqf+OEtU/u/uzUOkz9AGevikKP3V5BIK+Fe/hE8gdbePnR+0/WeevV8h1TTC/H+Nobwm3ldzsfQbaO+1APqIt/7BylazNU=
p1385
sVansible_kernel
p1386
V3.0.101-0.8-default
p1387
sVansible_processor_threads_per_core
p1388
I1
sVansible_fqdn
p1389
Vdgp-et-as1
p1390
sVansible_mounts
p1391
(lp1392
(dp1393
Vsize_total
p1394
I8987635712
sVmount
p1395
V/
sVsize_available
p1396
I3557883904
sVfstype
p1397
Vext3
p1398
sVdevice
p1399
V/dev/mapper/vg0-root
p1400
sVoptions
p1401
Vrw,acl,user_xattr
p1402
sa(dp1403
Vsize_total
p1404
I508728320
sVmount
p1405
V/boot
p1406
sVsize_available
p1407
I428709888
sVfstype
p1408
Vext3
p1409
sVdevice
p1410
V/dev/sda1
p1411
sVoptions
p1412
Vrw,acl,user_xattr
p1413
sa(dp1414
Vsize_total
p1415
I52844687360
sVmount
p1416
V/opt
p1417
sVsize_available
p1418
I32786952192
sVfstype
p1419
Vext3
p1420
sVdevice
p1421
V/dev/mapper/vg0-swlv
p1422
sVoptions
p1423
Vrw,acl,user_xattr
p1424
sasVansible_eth0
p1425
(dp1426
Vmacaddress
p1427
V00:50:56:ad:69:18
p1428
sVmodule
p1429
Vvmxnet3
p1430
sVmtu
p1431
I1500
sVactive
p1432
I01
sVpromisc
p1433
I00
sVipv4
p1434
(dp1435
Vnetmask
p1436
V255.255.255.0
p1437
sVnetwork
p1438
V10.8.2.0
p1439
sVaddress
p1440
V10.8.2.21
p1441
ssVdevice
p1442
Veth0
p1443
sVtype
p1444
Vether
p1445
ssVansible_eth1
p1446
(dp1447
Vmacaddress
p1448
V00:50:56:ad:69:19
p1449
sVmodule
p1450
Vvmxnet3
p1451
sVmtu
p1452
I1500
sVactive
p1453
I01
sVpromisc
p1454
I00
sVipv4
p1455
(dp1456
Vnetmask
p1457
V255.255.255.0
p1458
sVnetwork
p1459
V10.8.3.0
p1460
sVaddress
p1461
V10.8.3.21
p1462
ssVdevice
p1463
Veth1
p1464
sVtype
p1465
Vether
p1466
ssVansible_eth2
p1467
(dp1468
Vmacaddress
p1469
V00:50:56:ad:69:1a
p1470
sVmodule
p1471
Vvmxnet3
p1472
sVmtu
p1473
I1500
sVactive
p1474
I01
sVpromisc
p1475
I00
sVipv4
p1476
(dp1477
Vnetmask
p1478
V255.255.255.0
p1479
sVnetwork
p1480
V10.8.4.0
p1481
sVaddress
p1482
V10.8.4.21
p1483
ssVdevice
p1484
Veth2
p1485
sVtype
p1486
Vether
p1487
ssVansible_distribution_major_version
p1488
V11
p1489
sVansible_all_ipv4_addresses
p1490
(lp1491
V10.8.2.21
p1492
aV10.8.3.21
p1493
aV10.8.4.21
p1494
asVansible_nodename
p1495
Vdgp-et-as1
p1496
ssS'dgp-et-as2'
p1497
(dp1498
Vansible_product_serial
p1499
VNA
p1500
sVansible_form_factor
p1501
VOther
p1502
sVansible_product_version
p1503
VNone
p1504
sVansible_swaptotal_mb
p1505
I1023
sVansible_user_id
p1506
Vyhekma
p1507
sVmodule_setup
p1508
I01
sVansible_userspace_bits
p1509
V64
p1510
sVansible_architecture
p1511
Vx86_64
p1512
sVansible_distribution_version
p1513
V11
p1514
sVansible_domain
p1515
V
sVansible_virtualization_type
p1516
VVMware
p1517
sVansible_python_version
p1518
V2.6.8
p1519
sVansible_processor_cores
p1520
I1
sVansible_virtualization_role
p1521
Vguest
p1522
sVansible_env
p1523
(dp1524
VLC_NUMERIC
p1525
Vnl_NL.UTF-8
p1526
sVLS_COLORS
p1527
Vno=00:fi=00:di=01;34:ln=00;36:pi=40;33:so=01;35:do=01;35:bd=40;33;01:cd=40;33;01:or=41;33;01:ex=00;32:*.cmd=00;32:*.exe=01;32:*.com=01;32:*.bat=01;32:*.btm=01;32:*.dll=01;32:*.tar=00;31:*.tbz=00;31:*.tgz=00;31:*.rpm=00;31:*.deb=00;31:*.arj=00;31:*.taz=00;31:*.lzh=00;31:*.lzma=00;31:*.zip=00;31:*.zoo=00;31:*.z=00;31:*.Z=00;31:*.gz=00;31:*.bz2=00;31:*.tb2=00;31:*.tz2=00;31:*.tbz2=00;31:*.avi=01;35:*.bmp=01;35:*.fli=01;35:*.gif=01;35:*.jpg=01;35:*.jpeg=01;35:*.mng=01;35:*.mov=01;35:*.mpg=01;35:*.pcx=01;35:*.pbm=01;35:*.pgm=01;35:*.png=01;35:*.ppm=01;35:*.tga=01;35:*.tif=01;35:*.xbm=01;35:*.xpm=01;35:*.dl=01;35:*.gl=01;35:*.wmv=01;35:*.aiff=00;32:*.au=00;32:*.mid=00;32:*.mp3=00;32:*.ogg=00;32:*.voc=00;32:*.wav=00;32:
p1528
sVLESS
p1529
V-M -I
p1530
sVMINICOM
p1531
V-c on
p1532
sVLC_CTYPE
p1533
Ven_US.UTF-8
p1534
sVHOSTTYPE
p1535
Vx86_64
p1536
sVLESSOPEN
p1537
Vlessopen.sh %s
p1538
sVSSH_CLIENT
p1539
V10.8.4.100 56773 22
p1540
sVLOGNAME
p1541
Vyhekma
p1542
sVUSER
p1543
Vyhekma
p1544
sVINPUTRC
p1545
V/home/yhekma/.inputrc
p1546
sVPATH
p1547
V/home/yhekma/bin:/usr/local/bin:/usr/bin:/bin:/usr/X11R6/bin:/usr/games:/usr/lib/mit/bin:/usr/lib/mit/sbin
p1548
sVLC_PAPER
p1549
Vnl_NL.UTF-8
p1550
sVHOME
p1551
V/home/yhekma
p1552
sVCPU
p1553
Vx86_64
p1554
sVLANG
p1555
Ven_US.UTF-8
p1556
sVINFOPATH
p1557
V/usr/local/info:/usr/share/info:/usr/info
p1558
sVTERM
p1559
Vscreen
p1560
sVSHELL
p1561
V/bin/bash
p1562
sVLC_MONETARY
p1563
Vnl_NL.UTF-8
p1564
sVG_BROKEN_FILENAMES
p1565
V1
sVHISTSIZE
p1566
V1000
p1567
sVLESS_ADVANCED_PREPROCESSOR
p1568
Vno
p1569
sVMANPATH
p1570
V/usr/local/man:/usr/share/man
p1571
sVOSTYPE
p1572
Vlinux
p1573
sVPROFILEREAD
p1574
Vtrue
p1575
sVXKEYSYMDB
p1576
V/usr/share/X11/XKeysymDB
p1577
sVNNTPSERVER
p1578
Vnews
p1579
sVINFODIR
p1580
V/usr/local/info:/usr/share/info:/usr/info
p1581
sVLC_ADDRESS
p1582
Vnl_NL.UTF-8
p1583
sVSSH_AUTH_SOCK
p1584
V/tmp/ssh-njVEwbVxBq/agent.5137
p1585
sVCSHEDIT
p1586
Vemacs
p1587
sVG_FILENAME_ENCODING
p1588
V@locale,UTF-8,ISO-8859-15,CP1252
p1589
sVHOST
p1590
Vdgp-et-as2
p1591
sVFROM_HEADER
p1592
V
sVENV
p1593
V/etc/bash.bashrc
p1594
sVLESSKEY
p1595
V/etc/lesskey.bin
p1596
sVXDG_CONFIG_DIRS
p1597
V/etc/xdg
p1598
sVLS_OPTIONS
p1599
V-N --color=tty -T 0
p1600
sVXNLSPATH
p1601
V/usr/X11R6/lib/X11/nls
p1602
sV_
V/usr/bin/python
p1603
sVLC_MEASUREMENT
p1604
Vnl_NL.UTF-8
p1605
sVMACHTYPE
p1606
Vx86_64-suse-linux
p1607
sVLESSCLOSE
p1608
Vlessclose.sh %s %s
p1609
sVPYTHONSTARTUP
p1610
V/etc/pythonstart
p1611
sVSSH_TTY
p1612
V/dev/pts/0
p1613
sVHOSTNAME
p1614
Vdgp-et-as2
p1615
sVTMOUT
p1616
V6000
p1617
sVLC_TELEPHONE
p1618
Vnl_NL.UTF-8
p1619
sVSSH_SENDS_LOCALE
p1620
Vyes
p1621
sVSHLVL
p1622
V2
sVPWD
p1623
V/home/yhekma
p1624
sVCOLORTERM
p1625
V1
sVLC_NAME
p1626
Vnl_NL.UTF-8
p1627
sVMAIL
p1628
V/var/mail/yhekma
p1629
sVLC_TIME
p1630
Vnl_NL.UTF-8
p1631
sVSSH_CONNECTION
p1632
V10.8.4.100 56773 10.8.4.22 22
p1633
sVPAGER
p1634
Vless
p1635
sVXDG_DATA_DIRS
p1636
V/usr/share
p1637
sVMORE
p1638
V-sl
p1639
ssVansible_processor_vcpus
p1640
I4
sVansible_bios_version
p1641
V6.00
p1642
sVansible_processor
p1643
(lp1644
VIntel(R) Xeon(R) CPU           E5645  @ 2.40GHz
p1645
aVIntel(R) Xeon(R) CPU           E5645  @ 2.40GHz
p1646
aVIntel(R) Xeon(R) CPU           E5645  @ 2.40GHz
p1647
aVIntel(R) Xeon(R) CPU           E5645  @ 2.40GHz
p1648
asVansible_date_time
p1649
(dp1650
Vtz
p1651
VCEST
p1652
sVhour
p1653
V13
p1654
sVtime
p1655
V13:00:49
p1656
sVtz_offset
p1657
V+0200
p1658
sVmonth
p1659
V09
p1660
sVepoch
p1661
V1410951649
p1662
sViso8601_micro
p1663
V2014-09-17T11:00:49.437148Z
p1664
sVweekday
p1665
Vwoensdag
p1666
sVyear
p1667
V2014
p1668
sVdate
p1669
V2014-09-17
p1670
sViso8601
p1671
V2014-09-17T11:00:49Z
p1672
sVday
p1673
V17
p1674
sVminute
p1675
V00
p1676
sVsecond
p1677
V49
p1678
ssVansible_lo
p1679
(dp1680
Vpromisc
p1681
I00
sVmtu
p1682
I16436
sVactive
p1683
I01
sVipv4_secondaries
p1684
(lp1685
(dp1686
Vnetmask
p1687
V255.0.0.0
p1688
sVnetwork
p1689
V127.0.0.0
p1690
sVaddress
p1691
V127.0.0.2
p1692
sa(dp1693
Vnetmask
p1694
V255.0.0.0
p1695
sVnetwork
p1696
V127.0.0.0
p1697
sVaddress
p1698
V127.0.0.2
p1699
sasVipv4
p1700
(dp1701
Vnetmask
p1702
V255.0.0.0
p1703
sVnetwork
p1704
V127.0.0.0
p1705
sVaddress
p1706
V127.0.0.1
p1707
ssVdevice
p1708
Vlo
p1709
sVtype
p1710
Vloopback
p1711
ssVansible_memtotal_mb
p1712
I16014
sVansible_ssh_host_key_ecdsa_public
p1713
VAAAAE2VjZHNhLXNoYTItbmlzdHAyNTYAAAAIbmlzdHAyNTYAAABBBAOOD8MtWhRa124Zt737HMMzx9Gxm1C6wxb/YMiAAa3X93REdxkXc11kNcDZBiZHNa/CDhOmK0OhXUMZ60wOEBs=
p1714
sVansible_default_ipv4
p1715
(dp1716
Vmacaddress
p1717
V00:50:56:ad:69:1b
p1718
sVnetwork
p1719
V10.8.2.0
p1720
sVmtu
p1721
I1500
sValias
p1722
Veth0
p1723
sVnetmask
p1724
V255.255.255.0
p1725
sVaddress
p1726
V10.8.2.22
p1727
sVinterface
p1728
Veth0
p1729
sVtype
p1730
Vether
p1731
sVgateway
p1732
V10.8.2.1
p1733
ssVansible_swapfree_mb
p1734
I1023
sVansible_default_ipv6
p1735
(dp1736
sVansible_distribution_release
p1737
V2
sVansible_system_vendor
p1738
VVMware, Inc.
p1739
sVansible_os_family
p1740
VSuse
p1741
sVansible_cmdline
p1742
(dp1743
Vresume
p1744
V/dev/vg0/swap
p1745
sVvga
p1746
V0x314
p1747
sVelevator
p1748
Vnoop
p1749
sVsplash
p1750
Vsilent
p1751
sVcrashkernel
p1752
V128M-:64M
p1753
sVroot
p1754
V/dev/vg0/root
p1755
ssVansible_selinux
p1756
I00
sVansible_userspace_architecture
p1757
Vx86_64
p1758
sVansible_product_uuid
p1759
VNA
p1760
sVansible_product_name
p1761
VVMware Virtual Platform
p1762
sVansible_pkg_mgr
p1763
Vzypper
p1764
sVansible_memfree_mb
p1765
I1082
sVansible_system
p1766
VLinux
p1767
sVansible_devices
p1768
(dp1769
Vfd0
p1770
(dp1771
Vscheduler_mode
p1772
Vnoop
p1773
sVrotational
p1774
V1
sVvendor
p1775
NsVsectors
p1776
V8
sVhost
p1777
V
sVsectorsize
p1778
V512
p1779
sVremovable
p1780
V1
sVsupport_discard
p1781
V0
sVmodel
p1782
NsVsize
p1783
V4.00 KB
p1784
sVholders
p1785
(lp1786
sVpartitions
p1787
(dp1788
ssVsr0
p1789
(dp1790
Vscheduler_mode
p1791
Vnoop
p1792
sVrotational
p1793
V1
sVvendor
p1794
VNECVMWar
p1795
sVsectors
p1796
V2097151
p1797
sVhost
p1798
VIDE interface: Intel Corporation 82371AB/EB/MB PIIX4 IDE (rev 01)
p1799
sVsectorsize
p1800
V512
p1801
sVremovable
p1802
V1
sVsupport_discard
p1803
V0
sVmodel
p1804
VVMware IDE CDR10
p1805
sVsize
p1806
V1024.00 MB
p1807
sVholders
p1808
(lp1809
sVpartitions
p1810
(dp1811
ssVsda
p1812
(dp1813
Vscheduler_mode
p1814
Vnoop
p1815
sVrotational
p1816
V1
sVvendor
p1817
VVMware
p1818
sVsectors
p1819
V146800640
p1820
sVhost
p1821
VSCSI storage controller: LSI Logic / Symbios Logic 53c1030 PCI-X Fusion-MPT Dual Ultra320 SCSI (rev 01)
p1822
sVsectorsize
p1823
V512
p1824
sVremovable
p1825
V0
sVsupport_discard
p1826
V0
sVmodel
p1827
VVirtual disk
p1828
sVsize
p1829
V70.00 GB
p1830
sVholders
p1831
(lp1832
sVpartitions
p1833
(dp1834
Vsda2
p1835
(dp1836
Vstart
p1837
V1028096
p1838
sVsectorsize
p1839
I512
sVsectors
p1840
V145772544
p1841
sVsize
p1842
V69.51 GB
p1843
ssVsda1
p1844
(dp1845
Vstart
p1846
V2048
p1847
sVsectorsize
p1848
I512
sVsectors
p1849
V1026048
p1850
sVsize
p1851
V501.00 MB
p1852
sssssVansible_distribution
p1853
VSuse
p1854
sVansible_ssh_host_key_dsa_public
p1855
VAAAAB3NzaC1kc3MAAACBAJE4VGZPsaxlqpvxcp2kzfK75PPI6tmgjNpUxHKnjAYDHFBR31HJRWAPeTvogKl2bsaOqCD6Q5gUJ5zAkkrbCxLLhXM4FdNKmmYoHMnV8oC5/QrE1vL4y7nZuZlUDmn/KTVBuzxuiMoiljdlBzKMuKvIgdZP7VdguDeelE27yZVlAAAAFQCgRFcDTdDLN14LiJVXZJ4SOz3klwAAAIBEVuANfBEMx68x17QAWCsxYZZ0rHXYjj/IUJ1c9f5+F8P7PbbGm6tLZFHhvWxJbQvPt+IFfrrj1SOLpspNCJajyZWWR4f0Qa1hW4tA1qAhWIn3SvW9jWd7/aWBUvWc1XHofBLdg+ZEaXyyn/ZyzHBVZ+hJHB2POgcio2qyutt4zwAAAIBLHdYx/6p6jvIV3ii3m+w2MYvEQoncqGOpYo9GJOL1JJYYnlo7wNMXA8WI0DKtnYtdrgh30HCM0n6qIJgQNqot/huyCL+T5F3pxJbv+9QDomYCXsQtUyAtDonRxER9C/w450VA+3rA6bCLNjo8EMO2TWElfQUW0tGgv2hjIZQtHA==
p1856
sVansible_processor_count
p1857
I4
sVansible_hostname
p1858
Vdgp-et-as2
p1859
sVansible_bios_date
p1860
V02/22/2012
p1861
sVansible_all_ipv6_addresses
p1862
(lp1863
sVansible_interfaces
p1864
(lp1865
Vlo
p1866
aVeth2
p1867
aVeth1
p1868
aVeth0
p1869
asVansible_machine
p1870
Vx86_64
p1871
sVansible_ssh_host_key_rsa_public
p1872
VAAAAB3NzaC1yc2EAAAABIwAAAIEAmFJmXjKhAKIy+yJzOMQB1e5qMCQQ9kMV1UL37kyQuc6o0igBuT8+VfDVy5xExaze06X1KVKbJroUfLn+tBxgIo9sh5hq1LoHO6ak+gw6A5Agr3wvXi/Wy+JBwhJfcoe0aNSYh0ClAlHO+R9I3SH1BNVTYyJSUrhJzf3M4kcXcnU=
p1873
sVansible_kernel
p1874
V3.0.101-0.8-default
p1875
sVansible_processor_threads_per_core
p1876
I1
sVansible_fqdn
p1877
Vdgp-et-as2
p1878
sVansible_mounts
p1879
(lp1880
(dp1881
Vsize_total
p1882
I8987635712
sVmount
p1883
V/
sVsize_available
p1884
I4578496512
sVfstype
p1885
Vext3
p1886
sVdevice
p1887
V/dev/mapper/vg0-root
p1888
sVoptions
p1889
Vrw,acl,user_xattr
p1890
sa(dp1891
Vsize_total
p1892
I508728320
sVmount
p1893
V/boot
p1894
sVsize_available
p1895
I428762112
sVfstype
p1896
Vext3
p1897
sVdevice
p1898
V/dev/sda1
p1899
sVoptions
p1900
Vrw,acl,user_xattr
p1901
sa(dp1902
Vsize_total
p1903
I52844687360
sVmount
p1904
V/opt
p1905
sVsize_available
p1906
I34781876224
sVfstype
p1907
Vext3
p1908
sVdevice
p1909
V/dev/mapper/vg0-swlv
p1910
sVoptions
p1911
Vrw,acl,user_xattr
p1912
sasVansible_eth0
p1913
(dp1914
Vmacaddress
p1915
V00:50:56:ad:69:1b
p1916
sVmodule
p1917
Vvmxnet3
p1918
sVmtu
p1919
I1500
sVactive
p1920
I01
sVpromisc
p1921
I00
sVipv4
p1922
(dp1923
Vnetmask
p1924
V255.255.255.0
p1925
sVnetwork
p1926
V10.8.2.0
p1927
sVaddress
p1928
V10.8.2.22
p1929
ssVdevice
p1930
Veth0
p1931
sVtype
p1932
Vether
p1933
ssVansible_eth1
p1934
(dp1935
Vmacaddress
p1936
V00:50:56:ad:69:1c
p1937
sVmodule
p1938
Vvmxnet3
p1939
sVmtu
p1940
I1500
sVactive
p1941
I01
sVpromisc
p1942
I00
sVipv4
p1943
(dp1944
Vnetmask
p1945
V255.255.255.0
p1946
sVnetwork
p1947
V10.8.3.0
p1948
sVaddress
p1949
V10.8.3.22
p1950
ssVdevice
p1951
Veth1
p1952
sVtype
p1953
Vether
p1954
ssVansible_eth2
p1955
(dp1956
Vmacaddress
p1957
V00:50:56:ad:69:1d
p1958
sVmodule
p1959
Vvmxnet3
p1960
sVmtu
p1961
I1500
sVactive
p1962
I01
sVpromisc
p1963
I00
sVipv4
p1964
(dp1965
Vnetmask
p1966
V255.255.255.0
p1967
sVnetwork
p1968
V10.8.4.0
p1969
sVaddress
p1970
V10.8.4.22
p1971
ssVdevice
p1972
Veth2
p1973
sVtype
p1974
Vether
p1975
ssVansible_distribution_major_version
p1976
V11
p1977
sVansible_all_ipv4_addresses
p1978
(lp1979
V10.8.2.22
p1980
aV10.8.3.22
p1981
aV10.8.4.22
p1982
asVansible_nodename
p1983
Vdgp-et-as2
p1984
ssS'dgp-et-as3'
p1985
(dp1986
Vansible_product_serial
p1987
VNA
p1988
sVansible_form_factor
p1989
VOther
p1990
sVansible_product_version
p1991
VNone
p1992
sVansible_swaptotal_mb
p1993
I1023
sVansible_user_id
p1994
Vyhekma
p1995
sVmodule_setup
p1996
I01
sVansible_userspace_bits
p1997
V64
p1998
sVansible_architecture
p1999
Vx86_64
p2000
sVansible_distribution_version
p2001
V11
p2002
sVansible_domain
p2003
V
sVansible_virtualization_type
p2004
VVMware
p2005
sVansible_python_version
p2006
V2.6.8
p2007
sVansible_processor_cores
p2008
I1
sVansible_virtualization_role
p2009
Vguest
p2010
sVansible_env
p2011
(dp2012
VLC_NUMERIC
p2013
Vnl_NL.UTF-8
p2014
sVLS_COLORS
p2015
Vno=00:fi=00:di=01;34:ln=00;36:pi=40;33:so=01;35:do=01;35:bd=40;33;01:cd=40;33;01:or=41;33;01:ex=00;32:*.cmd=00;32:*.exe=01;32:*.com=01;32:*.bat=01;32:*.btm=01;32:*.dll=01;32:*.tar=00;31:*.tbz=00;31:*.tgz=00;31:*.rpm=00;31:*.deb=00;31:*.arj=00;31:*.taz=00;31:*.lzh=00;31:*.lzma=00;31:*.zip=00;31:*.zoo=00;31:*.z=00;31:*.Z=00;31:*.gz=00;31:*.bz2=00;31:*.tb2=00;31:*.tz2=00;31:*.tbz2=00;31:*.avi=01;35:*.bmp=01;35:*.fli=01;35:*.gif=01;35:*.jpg=01;35:*.jpeg=01;35:*.mng=01;35:*.mov=01;35:*.mpg=01;35:*.pcx=01;35:*.pbm=01;35:*.pgm=01;35:*.png=01;35:*.ppm=01;35:*.tga=01;35:*.tif=01;35:*.xbm=01;35:*.xpm=01;35:*.dl=01;35:*.gl=01;35:*.wmv=01;35:*.aiff=00;32:*.au=00;32:*.mid=00;32:*.mp3=00;32:*.ogg=00;32:*.voc=00;32:*.wav=00;32:
p2016
sVLESS
p2017
V-M -I
p2018
sVMINICOM
p2019
V-c on
p2020
sVLC_CTYPE
p2021
Ven_US.UTF-8
p2022
sVHOSTTYPE
p2023
Vx86_64
p2024
sVLESSOPEN
p2025
Vlessopen.sh %s
p2026
sVQT_SYSTEM_DIR
p2027
V/usr/share/desktop-data
p2028
sVSSH_CLIENT
p2029
V10.8.4.100 43086 22
p2030
sVLOGNAME
p2031
Vyhekma
p2032
sVUSER
p2033
Vyhekma
p2034
sVINPUTRC
p2035
V/home/yhekma/.inputrc
p2036
sVPATH
p2037
V/home/yhekma/bin:/usr/local/bin:/usr/bin:/bin:/usr/bin/X11:/usr/X11R6/bin:/usr/games:/usr/lib/mit/bin:/usr/lib/mit/sbin
p2038
sVLC_PAPER
p2039
Vnl_NL.UTF-8
p2040
sVHOME
p2041
V/home/yhekma
p2042
sVCPU
p2043
Vx86_64
p2044
sVLANG
p2045
Ven_US.UTF-8
p2046
sVINFOPATH
p2047
V/usr/local/info:/usr/share/info:/usr/info
p2048
sVTERM
p2049
Vscreen
p2050
sVSHELL
p2051
V/bin/bash
p2052
sVLC_MONETARY
p2053
Vnl_NL.UTF-8
p2054
sVG_BROKEN_FILENAMES
p2055
V1
sVHISTSIZE
p2056
V1000
p2057
sVLESS_ADVANCED_PREPROCESSOR
p2058
Vno
p2059
sVMANPATH
p2060
V/usr/local/man:/usr/share/man
p2061
sVOSTYPE
p2062
Vlinux
p2063
sVPROFILEREAD
p2064
Vtrue
p2065
sVXKEYSYMDB
p2066
V/usr/share/X11/XKeysymDB
p2067
sVNNTPSERVER
p2068
Vnews
p2069
sVINFODIR
p2070
V/usr/local/info:/usr/share/info:/usr/info
p2071
sVLC_ADDRESS
p2072
Vnl_NL.UTF-8
p2073
sVSSH_AUTH_SOCK
p2074
V/tmp/ssh-VAi7xOvgnQ/agent.12610
p2075
sVXCURSOR_THEME
p2076
V
sVCSHEDIT
p2077
Vemacs
p2078
sVG_FILENAME_ENCODING
p2079
V@locale,UTF-8,ISO-8859-15,CP1252
p2080
sVHOST
p2081
Vdgp-et-as3
p2082
sVFROM_HEADER
p2083
V
sVENV
p2084
V/etc/bash.bashrc
p2085
sVLESSKEY
p2086
V/etc/lesskey.bin
p2087
sVXDG_CONFIG_DIRS
p2088
V/etc/xdg
p2089
sVLS_OPTIONS
p2090
V-N --color=tty -T 0
p2091
sVXNLSPATH
p2092
V/usr/share/X11/nls
p2093
sV_
V/usr/bin/python
p2094
sVLC_MEASUREMENT
p2095
Vnl_NL.UTF-8
p2096
sVMACHTYPE
p2097
Vx86_64-suse-linux
p2098
sVLESSCLOSE
p2099
Vlessclose.sh %s %s
p2100
sVPYTHONSTARTUP
p2101
V/etc/pythonstart
p2102
sVSSH_TTY
p2103
V/dev/pts/0
p2104
sVHOSTNAME
p2105
Vdgp-et-as3
p2106
sVTMOUT
p2107
V6000
p2108
sVLC_TELEPHONE
p2109
Vnl_NL.UTF-8
p2110
sVSSH_SENDS_LOCALE
p2111
Vyes
p2112
sVSHLVL
p2113
V2
sVPWD
p2114
V/home/yhekma
p2115
sVCOLORTERM
p2116
V1
sVLC_NAME
p2117
Vnl_NL.UTF-8
p2118
sVMAIL
p2119
V/var/mail/yhekma
p2120
sVLC_TIME
p2121
Vnl_NL.UTF-8
p2122
sVSSH_CONNECTION
p2123
V10.8.4.100 43086 10.8.4.23 22
p2124
sVPAGER
p2125
Vless
p2126
sVXDG_DATA_DIRS
p2127
V/usr/share
p2128
sVMORE
p2129
V-sl
p2130
ssVansible_processor_vcpus
p2131
I4
sVansible_bios_version
p2132
V6.00
p2133
sVansible_processor
p2134
(lp2135
VIntel(R) Xeon(R) CPU           E5645  @ 2.40GHz
p2136
aVIntel(R) Xeon(R) CPU           E5645  @ 2.40GHz
p2137
aVIntel(R) Xeon(R) CPU           E5645  @ 2.40GHz
p2138
aVIntel(R) Xeon(R) CPU           E5645  @ 2.40GHz
p2139
asVansible_date_time
p2140
(dp2141
Vtz
p2142
VCEST
p2143
sVhour
p2144
V13
p2145
sVtime
p2146
V13:00:49
p2147
sVtz_offset
p2148
V+0200
p2149
sVmonth
p2150
V09
p2151
sVepoch
p2152
V1410951649
p2153
sViso8601_micro
p2154
V2014-09-17T11:00:49.418719Z
p2155
sVweekday
p2156
Vwoensdag
p2157
sVyear
p2158
V2014
p2159
sVdate
p2160
V2014-09-17
p2161
sViso8601
p2162
V2014-09-17T11:00:49Z
p2163
sVday
p2164
V17
p2165
sVminute
p2166
V00
p2167
sVsecond
p2168
V49
p2169
ssVansible_lo
p2170
(dp2171
Vpromisc
p2172
I00
sVmtu
p2173
I16436
sVactive
p2174
I01
sVipv4_secondaries
p2175
(lp2176
(dp2177
Vnetmask
p2178
V255.0.0.0
p2179
sVnetwork
p2180
V127.0.0.0
p2181
sVaddress
p2182
V127.0.0.2
p2183
sa(dp2184
Vnetmask
p2185
V255.0.0.0
p2186
sVnetwork
p2187
V127.0.0.0
p2188
sVaddress
p2189
V127.0.0.2
p2190
sasVipv4
p2191
(dp2192
Vnetmask
p2193
V255.0.0.0
p2194
sVnetwork
p2195
V127.0.0.0
p2196
sVaddress
p2197
V127.0.0.1
p2198
ssVdevice
p2199
Vlo
p2200
sVtype
p2201
Vloopback
p2202
ssVansible_memtotal_mb
p2203
I16014
sVansible_ssh_host_key_ecdsa_public
p2204
VAAAAE2VjZHNhLXNoYTItbmlzdHAyNTYAAAAIbmlzdHAyNTYAAABBBG3DGc5XVqlYMgZDuVZNfSobMz0RX9LtVbB5GS28o6WY5//SBxkEUhQuU16EJ40OPUxHhu03pvuF+0h6i2lCH9Q=
p2205
sVansible_default_ipv4
p2206
(dp2207
Vmacaddress
p2208
V00:50:56:ad:69:1e
p2209
sVnetwork
p2210
V10.8.2.0
p2211
sVmtu
p2212
I1500
sValias
p2213
Veth0
p2214
sVnetmask
p2215
V255.255.255.0
p2216
sVaddress
p2217
V10.8.2.23
p2218
sVinterface
p2219
Veth0
p2220
sVtype
p2221
Vether
p2222
sVgateway
p2223
V10.8.2.1
p2224
ssVansible_swapfree_mb
p2225
I1023
sVansible_default_ipv6
p2226
(dp2227
sVansible_distribution_release
p2228
V2
sVansible_system_vendor
p2229
VVMware, Inc.
p2230
sVansible_os_family
p2231
VSuse
p2232
sVansible_cmdline
p2233
(dp2234
Vresume
p2235
V/dev/vg0/swap
p2236
sVvga
p2237
V0x314
p2238
sVelevator
p2239
Vnoop
p2240
sVsplash
p2241
Vsilent
p2242
sVcrashkernel
p2243
V128M-:64M
p2244
sVroot
p2245
V/dev/vg0/root
p2246
ssVansible_selinux
p2247
I00
sVansible_userspace_architecture
p2248
Vx86_64
p2249
sVansible_product_uuid
p2250
VNA
p2251
sVansible_product_name
p2252
VVMware Virtual Platform
p2253
sVansible_pkg_mgr
p2254
Vzypper
p2255
sVansible_memfree_mb
p2256
I3076
sVansible_system
p2257
VLinux
p2258
sVansible_devices
p2259
(dp2260
Vfd0
p2261
(dp2262
Vscheduler_mode
p2263
Vnoop
p2264
sVrotational
p2265
V1
sVvendor
p2266
NsVsectors
p2267
V8
sVhost
p2268
V
sVsectorsize
p2269
V512
p2270
sVremovable
p2271
V1
sVsupport_discard
p2272
V0
sVmodel
p2273
NsVsize
p2274
V4.00 KB
p2275
sVholders
p2276
(lp2277
sVpartitions
p2278
(dp2279
ssVsr0
p2280
(dp2281
Vscheduler_mode
p2282
Vnoop
p2283
sVrotational
p2284
V1
sVvendor
p2285
VNECVMWar
p2286
sVsectors
p2287
V2097151
p2288
sVhost
p2289
VIDE interface: Intel Corporation 82371AB/EB/MB PIIX4 IDE (rev 01)
p2290
sVsectorsize
p2291
V512
p2292
sVremovable
p2293
V1
sVsupport_discard
p2294
V0
sVmodel
p2295
VVMware IDE CDR10
p2296
sVsize
p2297
V1024.00 MB
p2298
sVholders
p2299
(lp2300
sVpartitions
p2301
(dp2302
ssVsda
p2303
(dp2304
Vscheduler_mode
p2305
Vnoop
p2306
sVrotational
p2307
V1
sVvendor
p2308
VVMware
p2309
sVsectors
p2310
V146800640
p2311
sVhost
p2312
VSCSI storage controller: LSI Logic / Symbios Logic 53c1030 PCI-X Fusion-MPT Dual Ultra320 SCSI (rev 01)
p2313
sVsectorsize
p2314
V512
p2315
sVremovable
p2316
V0
sVsupport_discard
p2317
V0
sVmodel
p2318
VVirtual disk
p2319
sVsize
p2320
V70.00 GB
p2321
sVholders
p2322
(lp2323
sVpartitions
p2324
(dp2325
Vsda2
p2326
(dp2327
Vstart
p2328
V1028096
p2329
sVsectorsize
p2330
I512
sVsectors
p2331
V145772544
p2332
sVsize
p2333
V69.51 GB
p2334
ssVsda1
p2335
(dp2336
Vstart
p2337
V2048
p2338
sVsectorsize
p2339
I512
sVsectors
p2340
V1026048
p2341
sVsize
p2342
V501.00 MB
p2343
sssssVansible_distribution
p2344
VSuse
p2345
sVansible_ssh_host_key_dsa_public
p2346
VAAAAB3NzaC1kc3MAAACBAPihx7NLCIhdgX4Gmbj/Maxngms7U+ZtGMrNxOEneUpZ3QSZmv6daek4Z4/Ah2lQfhdtf+WWhIwodlCHkRgQrv+1DJJ3mAnH9DVwk9xi5VDeMKGX8EEPRxZEXAOUdDYo48SemztNaHtXkgADAB2Uclko9RRiuAUSqmcdis+mbJlBAAAAFQCbMYBAb26tonhGi18EkCayJWt4uwAAAIARQQiRlRUiZes0YOldeXkYsvpLqwwCoUSzxEOoqyHK6Tnpbmt1uvBGtQ1xg53D7N4ACC0A81hX9U+FcPGbPzKuWVzWbUVFlIHJfiD4DNBbE1DWTI3dui1DaHkdsbifJrS+DEvPj/qbjIjDJ+7i7In+pZMiQwd1FCjRup9NUlCJ5gAAAIBA2jMoyBks6zpbUf+1j4tMI4E+A4+W4/+HmIkx1P7tTxqGwstM0tUyFlezZ8FfkECDXpwxHYmdklnagDlsFmIvtGB0gdipHFXKXtrouG77gDFldScxhg87PrnsoDjyWlGbcQyO/NZoYXeZroEEFE65aAql+1oUuGrVf4vY13DREQ==
p2347
sVansible_processor_count
p2348
I4
sVansible_hostname
p2349
Vdgp-et-as3
p2350
sVansible_bios_date
p2351
V02/22/2012
p2352
sVansible_all_ipv6_addresses
p2353
(lp2354
sVansible_interfaces
p2355
(lp2356
Vlo
p2357
aVeth2
p2358
aVeth1
p2359
aVeth0
p2360
asVansible_machine
p2361
Vx86_64
p2362
sVansible_ssh_host_key_rsa_public
p2363
VAAAAB3NzaC1yc2EAAAABIwAAAIEA3S83rQrRRWVmTdgMTMlfqY77K9KqSeupe9Gv1fNTqNqeLOx3+XGUlIu571rb5QrEgtTyGcScrvgam7i9HgjBkmwMFXFCOKwFAVqxWLZ5wuzhtEMDdZcjf0Fh0PXRojLBhTUbSpQxYhcojAXOs42GbGTAlslu6TLiiyKOOas7rV0=
p2364
sVansible_kernel
p2365
V3.0.101-0.8-default
p2366
sVansible_processor_threads_per_core
p2367
I1
sVansible_fqdn
p2368
Vdgp-et-as3
p2369
sVansible_mounts
p2370
(lp2371
(dp2372
Vsize_total
p2373
I8987635712
sVmount
p2374
V/
sVsize_available
p2375
I4829978624
sVfstype
p2376
Vext3
p2377
sVdevice
p2378
V/dev/mapper/vg0-root
p2379
sVoptions
p2380
Vrw,acl,user_xattr
p2381
sa(dp2382
Vsize_total
p2383
I508728320
sVmount
p2384
V/boot
p2385
sVsize_available
p2386
I427857920
sVfstype
p2387
Vext3
p2388
sVdevice
p2389
V/dev/sda1
p2390
sVoptions
p2391
Vrw,acl,user_xattr
p2392
sa(dp2393
Vsize_total
p2394
I52844687360
sVmount
p2395
V/opt
p2396
sVsize_available
p2397
I40803184640
sVfstype
p2398
Vext3
p2399
sVdevice
p2400
V/dev/mapper/vg0-swlv
p2401
sVoptions
p2402
Vrw,acl,user_xattr
p2403
sasVansible_eth0
p2404
(dp2405
Vmacaddress
p2406
V00:50:56:ad:69:1e
p2407
sVmodule
p2408
Vvmxnet3
p2409
sVmtu
p2410
I1500
sVactive
p2411
I01
sVpromisc
p2412
I00
sVipv4
p2413
(dp2414
Vnetmask
p2415
V255.255.255.0
p2416
sVnetwork
p2417
V10.8.2.0
p2418
sVaddress
p2419
V10.8.2.23
p2420
ssVdevice
p2421
Veth0
p2422
sVtype
p2423
Vether
p2424
ssVansible_eth1
p2425
(dp2426
Vmacaddress
p2427
V00:50:56:ad:69:1f
p2428
sVmodule
p2429
Vvmxnet3
p2430
sVmtu
p2431
I1500
sVactive
p2432
I01
sVpromisc
p2433
I00
sVipv4
p2434
(dp2435
Vnetmask
p2436
V255.255.255.0
p2437
sVnetwork
p2438
V10.8.3.0
p2439
sVaddress
p2440
V10.8.3.23
p2441
ssVdevice
p2442
Veth1
p2443
sVtype
p2444
Vether
p2445
ssVansible_eth2
p2446
(dp2447
Vmacaddress
p2448
V00:50:56:ad:69:20
p2449
sVmodule
p2450
Vvmxnet3
p2451
sVmtu
p2452
I1500
sVactive
p2453
I01
sVpromisc
p2454
I00
sVipv4
p2455
(dp2456
Vnetmask
p2457
V255.255.255.0
p2458
sVnetwork
p2459
V10.8.4.0
p2460
sVaddress
p2461
V10.8.4.23
p2462
ssVdevice
p2463
Veth2
p2464
sVtype
p2465
Vether
p2466
ssVansible_distribution_major_version
p2467
V11
p2468
sVansible_all_ipv4_addresses
p2469
(lp2470
V10.8.2.23
p2471
aV10.8.3.23
p2472
aV10.8.4.23
p2473
asVansible_nodename
p2474
Vdgp-et-as3
p2475
ssS'dgp-et-ds1'
p2476
(dp2477
Vansible_product_serial
p2478
VNA
p2479
sVansible_form_factor
p2480
VOther
p2481
sVansible_product_version
p2482
VNone
p2483
sVansible_swaptotal_mb
p2484
I1023
sVansible_user_id
p2485
Vyhekma
p2486
sVmodule_setup
p2487
I01
sVansible_userspace_bits
p2488
V64
p2489
sVansible_architecture
p2490
Vx86_64
p2491
sVansible_distribution_version
p2492
V11
p2493
sVansible_domain
p2494
V
sVansible_virtualization_type
p2495
VVMware
p2496
sVansible_python_version
p2497
V2.6.8
p2498
sVansible_processor_cores
p2499
I1
sVansible_virtualization_role
p2500
Vguest
p2501
sVansible_env
p2502
(dp2503
VLC_NUMERIC
p2504
Vnl_NL.UTF-8
p2505
sVLS_COLORS
p2506
Vno=00:fi=00:di=01;34:ln=00;36:pi=40;33:so=01;35:do=01;35:bd=40;33;01:cd=40;33;01:or=41;33;01:ex=00;32:*.cmd=00;32:*.exe=01;32:*.com=01;32:*.bat=01;32:*.btm=01;32:*.dll=01;32:*.tar=00;31:*.tbz=00;31:*.tgz=00;31:*.rpm=00;31:*.deb=00;31:*.arj=00;31:*.taz=00;31:*.lzh=00;31:*.lzma=00;31:*.zip=00;31:*.zoo=00;31:*.z=00;31:*.Z=00;31:*.gz=00;31:*.bz2=00;31:*.tb2=00;31:*.tz2=00;31:*.tbz2=00;31:*.avi=01;35:*.bmp=01;35:*.fli=01;35:*.gif=01;35:*.jpg=01;35:*.jpeg=01;35:*.mng=01;35:*.mov=01;35:*.mpg=01;35:*.pcx=01;35:*.pbm=01;35:*.pgm=01;35:*.png=01;35:*.ppm=01;35:*.tga=01;35:*.tif=01;35:*.xbm=01;35:*.xpm=01;35:*.dl=01;35:*.gl=01;35:*.wmv=01;35:*.aiff=00;32:*.au=00;32:*.mid=00;32:*.mp3=00;32:*.ogg=00;32:*.voc=00;32:*.wav=00;32:
p2507
sVLESS
p2508
V-M -I
p2509
sVMINICOM
p2510
V-c on
p2511
sVLC_CTYPE
p2512
Ven_US.UTF-8
p2513
sVHOSTTYPE
p2514
Vx86_64
p2515
sVLESSOPEN
p2516
Vlessopen.sh %s
p2517
sVQT_SYSTEM_DIR
p2518
V/usr/share/desktop-data
p2519
sVSSH_CLIENT
p2520
V10.8.4.100 44856 22
p2521
sVLOGNAME
p2522
Vyhekma
p2523
sVUSER
p2524
Vyhekma
p2525
sVINPUTRC
p2526
V/home/yhekma/.inputrc
p2527
sVPATH
p2528
V/home/yhekma/bin:/usr/local/bin:/usr/bin:/bin:/usr/bin/X11:/usr/X11R6/bin:/usr/games:/usr/lib/mit/bin:/usr/lib/mit/sbin
p2529
sVLC_PAPER
p2530
Vnl_NL.UTF-8
p2531
sVHOME
p2532
V/home/yhekma
p2533
sVCPU
p2534
Vx86_64
p2535
sVLANG
p2536
Ven_US.UTF-8
p2537
sVINFOPATH
p2538
V/usr/local/info:/usr/share/info:/usr/info
p2539
sVTERM
p2540
Vscreen
p2541
sVSHELL
p2542
V/bin/bash
p2543
sVLC_MONETARY
p2544
Vnl_NL.UTF-8
p2545
sVG_BROKEN_FILENAMES
p2546
V1
sVHISTSIZE
p2547
V1000
p2548
sVLESS_ADVANCED_PREPROCESSOR
p2549
Vno
p2550
sVMANPATH
p2551
V/usr/local/man:/usr/share/man
p2552
sVOSTYPE
p2553
Vlinux
p2554
sVPROFILEREAD
p2555
Vtrue
p2556
sVXKEYSYMDB
p2557
V/usr/share/X11/XKeysymDB
p2558
sVNNTPSERVER
p2559
Vnews
p2560
sVINFODIR
p2561
V/usr/local/info:/usr/share/info:/usr/info
p2562
sVLC_ADDRESS
p2563
Vnl_NL.UTF-8
p2564
sVSSH_AUTH_SOCK
p2565
V/tmp/ssh-muHxfPMjK4/agent.27716
p2566
sVXCURSOR_THEME
p2567
V
sVCSHEDIT
p2568
Vemacs
p2569
sVG_FILENAME_ENCODING
p2570
V@locale,UTF-8,ISO-8859-15,CP1252
p2571
sVHOST
p2572
Vdgp-et-ds1
p2573
sVFROM_HEADER
p2574
V
sVENV
p2575
V/etc/bash.bashrc
p2576
sVLESSKEY
p2577
V/etc/lesskey.bin
p2578
sVXDG_CONFIG_DIRS
p2579
V/etc/xdg
p2580
sVLS_OPTIONS
p2581
V-N --color=tty -T 0
p2582
sVXNLSPATH
p2583
V/usr/share/X11/nls
p2584
sV_
V/usr/bin/python
p2585
sVLC_MEASUREMENT
p2586
Vnl_NL.UTF-8
p2587
sVMACHTYPE
p2588
Vx86_64-suse-linux
p2589
sVLESSCLOSE
p2590
Vlessclose.sh %s %s
p2591
sVPYTHONSTARTUP
p2592
V/etc/pythonstart
p2593
sVSSH_TTY
p2594
V/dev/pts/0
p2595
sVHOSTNAME
p2596
Vdgp-et-ds1
p2597
sVTMOUT
p2598
V6000
p2599
sVLC_TELEPHONE
p2600
Vnl_NL.UTF-8
p2601
sVSSH_SENDS_LOCALE
p2602
Vyes
p2603
sVSHLVL
p2604
V2
sVPWD
p2605
V/home/yhekma
p2606
sVCOLORTERM
p2607
V1
sVLC_NAME
p2608
Vnl_NL.UTF-8
p2609
sVMAIL
p2610
V/var/mail/yhekma
p2611
sVLC_TIME
p2612
Vnl_NL.UTF-8
p2613
sVSSH_CONNECTION
p2614
V10.8.4.100 44856 10.8.4.31 22
p2615
sVPAGER
p2616
Vless
p2617
sVXDG_DATA_DIRS
p2618
V/usr/share
p2619
sVMORE
p2620
V-sl
p2621
ssVansible_processor_vcpus
p2622
I4
sVansible_bios_version
p2623
V6.00
p2624
sVansible_processor
p2625
(lp2626
VIntel(R) Xeon(R) CPU           E5620  @ 2.40GHz
p2627
aVIntel(R) Xeon(R) CPU           E5620  @ 2.40GHz
p2628
aVIntel(R) Xeon(R) CPU           E5620  @ 2.40GHz
p2629
aVIntel(R) Xeon(R) CPU           E5620  @ 2.40GHz
p2630
asVansible_date_time
p2631
(dp2632
Vtz
p2633
VCEST
p2634
sVhour
p2635
V13
p2636
sVtime
p2637
V13:00:50
p2638
sVtz_offset
p2639
V+0200
p2640
sVmonth
p2641
V09
p2642
sVepoch
p2643
V1410951650
p2644
sViso8601_micro
p2645
V2014-09-17T11:00:50.433651Z
p2646
sVweekday
p2647
Vwoensdag
p2648
sVyear
p2649
V2014
p2650
sVdate
p2651
V2014-09-17
p2652
sViso8601
p2653
V2014-09-17T11:00:50Z
p2654
sVday
p2655
V17
p2656
sVminute
p2657
V00
p2658
sVsecond
p2659
V50
p2660
ssVansible_lo
p2661
(dp2662
Vpromisc
p2663
I00
sVmtu
p2664
I16436
sVactive
p2665
I01
sVipv4_secondaries
p2666
(lp2667
(dp2668
Vnetmask
p2669
V255.0.0.0
p2670
sVnetwork
p2671
V127.0.0.0
p2672
sVaddress
p2673
V127.0.0.2
p2674
sa(dp2675
Vnetmask
p2676
V255.0.0.0
p2677
sVnetwork
p2678
V127.0.0.0
p2679
sVaddress
p2680
V127.0.0.2
p2681
sasVipv4
p2682
(dp2683
Vnetmask
p2684
V255.0.0.0
p2685
sVnetwork
p2686
V127.0.0.0
p2687
sVaddress
p2688
V127.0.0.1
p2689
ssVdevice
p2690
Vlo
p2691
sVtype
p2692
Vloopback
p2693
ssVansible_memtotal_mb
p2694
I16014
sVansible_ssh_host_key_ecdsa_public
p2695
VAAAAE2VjZHNhLXNoYTItbmlzdHAyNTYAAAAIbmlzdHAyNTYAAABBBG/w7KGzqaGBrPxJUkDDoRIieDLXmgitBsm2NI/Xn+Oss+mCOwDZ4C5H8Kni0xgwQ7IDTglYsJq2NvdvgEcUsOQ=
p2696
sVansible_default_ipv4
p2697
(dp2698
Vmacaddress
p2699
V00:50:56:ad:69:26
p2700
sVnetwork
p2701
V10.8.3.0
p2702
sVmtu
p2703
I1500
sValias
p2704
Veth0
p2705
sVnetmask
p2706
V255.255.255.0
p2707
sVaddress
p2708
V10.8.3.31
p2709
sVinterface
p2710
Veth0
p2711
sVtype
p2712
Vether
p2713
sVgateway
p2714
V10.8.3.1
p2715
ssVansible_swapfree_mb
p2716
I863
sVansible_default_ipv6
p2717
(dp2718
sVansible_distribution_release
p2719
V2
sVansible_system_vendor
p2720
VVMware, Inc.
p2721
sVansible_os_family
p2722
VSuse
p2723
sVansible_cmdline
p2724
(dp2725
Vresume
p2726
V/dev/vg0/swap
p2727
sVvga
p2728
V0x314
p2729
sVelevator
p2730
Vnoop
p2731
sVsplash
p2732
Vsilent
p2733
sVcrashkernel
p2734
V128M-:64M
p2735
sVroot
p2736
V/dev/vg0/root
p2737
ssVansible_selinux
p2738
I00
sVansible_userspace_architecture
p2739
Vx86_64
p2740
sVansible_product_uuid
p2741
VNA
p2742
sVansible_system
p2743
VLinux
p2744
sVansible_pkg_mgr
p2745
Vzypper
p2746
sVansible_memfree_mb
p2747
I1458
sVansible_devices
p2748
(dp2749
Vfd0
p2750
(dp2751
Vscheduler_mode
p2752
Vnoop
p2753
sVrotational
p2754
V1
sVvendor
p2755
NsVsectors
p2756
V8
sVhost
p2757
V
sVsectorsize
p2758
V512
p2759
sVremovable
p2760
V1
sVsupport_discard
p2761
V0
sVmodel
p2762
NsVsize
p2763
V4.00 KB
p2764
sVholders
p2765
(lp2766
sVpartitions
p2767
(dp2768
ssVsr0
p2769
(dp2770
Vscheduler_mode
p2771
Vnoop
p2772
sVrotational
p2773
V1
sVvendor
p2774
VNECVMWar
p2775
sVsectors
p2776
V2097151
p2777
sVhost
p2778
VIDE interface: Intel Corporation 82371AB/EB/MB PIIX4 IDE (rev 01)
p2779
sVsectorsize
p2780
V512
p2781
sVremovable
p2782
V1
sVsupport_discard
p2783
V0
sVmodel
p2784
VVMware IDE CDR10
p2785
sVsize
p2786
V1024.00 MB
p2787
sVholders
p2788
(lp2789
sVpartitions
p2790
(dp2791
ssVsda
p2792
(dp2793
Vscheduler_mode
p2794
Vnoop
p2795
sVrotational
p2796
V1
sVvendor
p2797
VVMware
p2798
sVsectors
p2799
V209715200
p2800
sVhost
p2801
VSCSI storage controller: LSI Logic / Symbios Logic 53c1030 PCI-X Fusion-MPT Dual Ultra320 SCSI (rev 01)
p2802
sVsectorsize
p2803
V512
p2804
sVremovable
p2805
V0
sVsupport_discard
p2806
V0
sVmodel
p2807
VVirtual disk
p2808
sVsize
p2809
V100.00 GB
p2810
sVholders
p2811
(lp2812
sVpartitions
p2813
(dp2814
Vsda2
p2815
(dp2816
Vstart
p2817
V1028096
p2818
sVsectorsize
p2819
I512
sVsectors
p2820
V208687104
p2821
sVsize
p2822
V99.51 GB
p2823
ssVsda1
p2824
(dp2825
Vstart
p2826
V2048
p2827
sVsectorsize
p2828
I512
sVsectors
p2829
V1026048
p2830
sVsize
p2831
V501.00 MB
p2832
ssssVsdb
p2833
(dp2834
Vscheduler_mode
p2835
Vnoop
p2836
sVrotational
p2837
V1
sVvendor
p2838
VVMware
p2839
sVsectors
p2840
V1048576000
p2841
sVhost
p2842
VSCSI storage controller: LSI Logic / Symbios Logic 53c1030 PCI-X Fusion-MPT Dual Ultra320 SCSI (rev 01)
p2843
sVsectorsize
p2844
V512
p2845
sVremovable
p2846
V0
sVsupport_discard
p2847
V0
sVmodel
p2848
VVirtual disk
p2849
sVsize
p2850
V500.00 GB
p2851
sVholders
p2852
(lp2853
sVpartitions
p2854
(dp2855
Vsdb1
p2856
(dp2857
Vstart
p2858
V63
p2859
sVsectorsize
p2860
I512
sVsectors
p2861
V1048575937
p2862
sVsize
p2863
V500.00 GB
p2864
sssssVansible_distribution
p2865
VSuse
p2866
sVansible_ssh_host_key_dsa_public
p2867
VAAAAB3NzaC1kc3MAAACBAJGGSRLgCmqmix7xU3JCB0It/AYg4vcpb8BcWX+n6qJCCBdWb6ffvx538NHlankAFmZW6oDfftQVZE1zYTs9RvZmZyqqmSqwz6B9ZusoXwJJe9A1xHmApSKnYcz1I2j4VBuJF4Qw7qcyVEGktmxhwhet/LJIMUi8O1vSl3bSIMo3AAAAFQCn2WzGGWnKn2nWsWkJcATb7JB0awAAAIBlsLIvgnBOLiqC+Vm2SADfipEpnQHwyPZjnWrWWxnT+9K+D0rEK8xh60mB2JHguhkSZnjTycw2LJl+NwxKk0nDPzYFJ8/53Nk3bFp3BYHY1evPAzZi+5sOoeFsNulbdkMCW1MCmwawBNyOPRS+3jgbhCNTLyjqqjM0hD2m6N3N+AAAAIAqrIwjtgiJd6eTjqwQBJLZzDr1W9IUdI+2MyoqNxXKqD92hxTQO9DEVLVG9BIYd4RdJdlby7m3q4SphZ1rBS9iOPnzz3CPBAEp+3Y/ULGMVuZ5HRuKYnAHqXz6dt1AZ7QFGzMjhI4tTsCDJgleNYgWIN2H7uVH3ctojVc7wu7Esw==
p2868
sVansible_processor_count
p2869
I4
sVansible_hostname
p2870
Vdgp-et-ds1
p2871
sVansible_bios_date
p2872
V02/22/2012
p2873
sVansible_all_ipv6_addresses
p2874
(lp2875
sVansible_interfaces
p2876
(lp2877
Vlo
p2878
aVeth1
p2879
aVeth0
p2880
asVansible_machine
p2881
Vx86_64
p2882
sVansible_ssh_host_key_rsa_public
p2883
VAAAAB3NzaC1yc2EAAAABIwAAAIEA0yZ2aHx8T54RPY1cIO/p1n2XhRBw940Z0pd9JCiXY65ztn1S+K2EhbFYZldo5bPjHnyBWPRXBM9s1MTPm8QckRlJ3qarn8meY36FenAtDhifVOD7JlahuSLP8T77V9822xVDNkMmP/qS3rA6y+tFSWobt7hN6le4Hq70+2fTP70=
p2884
sVansible_kernel
p2885
V3.0.101-0.8-default
p2886
sVansible_processor_threads_per_core
p2887
I1
sVansible_fqdn
p2888
Vdgp-et-ds1
p2889
sVansible_mounts
p2890
(lp2891
(dp2892
Vsize_total
p2893
I8987635712
sVmount
p2894
V/
sVsize_available
p2895
I4096724992
sVfstype
p2896
Vext3
p2897
sVdevice
p2898
V/dev/mapper/vg0-root
p2899
sVoptions
p2900
Vrw,acl,user_xattr
p2901
sa(dp2902
Vsize_total
p2903
I508728320
sVmount
p2904
V/boot
p2905
sVsize_available
p2906
I428762112
sVfstype
p2907
Vext3
p2908
sVdevice
p2909
V/dev/sda1
p2910
sVoptions
p2911
Vrw,acl,user_xattr
p2912
sa(dp2913
Vsize_total
p2914
I21137846272
sVmount
p2915
V/opt
p2916
sVsize_available
p2917
I16153161728
sVfstype
p2918
Vext3
p2919
sVdevice
p2920
V/dev/mapper/vg0-opt
p2921
sVoptions
p2922
Vrw,acl,user_xattr
p2923
sa(dp2924
Vsize_total
p2925
I5284429824
sVmount
p2926
V/opt/IBM/db2
p2927
sVsize_available
p2928
I2617384960
sVfstype
p2929
Vext3
p2930
sVdevice
p2931
V/dev/mapper/vg0-swlv
p2932
sVoptions
p2933
Vrw,acl,user_xattr
p2934
sa(dp2935
Vsize_total
p2936
I89836019712
sVmount
p2937
V/opt/IBM/db2/data
p2938
sVsize_available
p2939
I38422081536
sVfstype
p2940
Vext3
p2941
sVdevice
p2942
V/dev/mapper/vg0-datalv
p2943
sVoptions
p2944
Vrw,acl,user_xattr
p2945
sa(dp2946
Vsize_total
p2947
I472431747072
sVmount
p2948
V/opt/IBM/db2/data/backup
p2949
sVsize_available
p2950
I445287948288
sVfstype
p2951
Vext3
p2952
sVdevice
p2953
V/dev/mapper/vg0-backup
p2954
sVoptions
p2955
Vrw,acl,user_xattr
p2956
sasVansible_eth0
p2957
(dp2958
Vmacaddress
p2959
V00:50:56:ad:69:26
p2960
sVmodule
p2961
Vvmxnet3
p2962
sVmtu
p2963
I1500
sVactive
p2964
I01
sVpromisc
p2965
I00
sVipv4
p2966
(dp2967
Vnetmask
p2968
V255.255.255.0
p2969
sVnetwork
p2970
V10.8.3.0
p2971
sVaddress
p2972
V10.8.3.31
p2973
ssVdevice
p2974
Veth0
p2975
sVtype
p2976
Vether
p2977
ssVansible_eth1
p2978
(dp2979
Vmacaddress
p2980
V00:50:56:ad:69:27
p2981
sVmodule
p2982
Vvmxnet3
p2983
sVmtu
p2984
I1500
sVactive
p2985
I01
sVpromisc
p2986
I00
sVipv4
p2987
(dp2988
Vnetmask
p2989
V255.255.255.0
p2990
sVnetwork
p2991
V10.8.4.0
p2992
sVaddress
p2993
V10.8.4.31
p2994
ssVdevice
p2995
Veth1
p2996
sVtype
p2997
Vether
p2998
ssVansible_product_name
p2999
VVMware Virtual Platform
p3000
sVansible_distribution_major_version
p3001
V11
p3002
sVansible_all_ipv4_addresses
p3003
(lp3004
V10.8.3.31
p3005
aV10.8.4.31
p3006
asVansible_nodename
p3007
Vdgp-et-ds1
p3008
ssS'dgp-et-ws1'
p3009
(dp3010
Vansible_product_serial
p3011
VNA
p3012
sVansible_form_factor
p3013
VOther
p3014
sVansible_product_version
p3015
VNone
p3016
sVansible_swaptotal_mb
p3017
I1023
sVansible_user_id
p3018
Vyhekma
p3019
sVmodule_setup
p3020
I01
sVansible_userspace_bits
p3021
V64
p3022
sVansible_architecture
p3023
Vx86_64
p3024
sVansible_distribution_version
p3025
V11
p3026
sVansible_domain
p3027
V
sVansible_virtualization_type
p3028
VVMware
p3029
sVansible_python_version
p3030
V2.6.8
p3031
sVansible_processor_cores
p3032
I1
sVansible_virtualization_role
p3033
Vguest
p3034
sVansible_env
p3035
(dp3036
VLC_NUMERIC
p3037
Vnl_NL.UTF-8
p3038
sVLS_COLORS
p3039
Vno=00:fi=00:di=01;34:ln=00;36:pi=40;33:so=01;35:do=01;35:bd=40;33;01:cd=40;33;01:or=41;33;01:ex=00;32:*.cmd=00;32:*.exe=01;32:*.com=01;32:*.bat=01;32:*.btm=01;32:*.dll=01;32:*.tar=00;31:*.tbz=00;31:*.tgz=00;31:*.rpm=00;31:*.deb=00;31:*.arj=00;31:*.taz=00;31:*.lzh=00;31:*.lzma=00;31:*.zip=00;31:*.zoo=00;31:*.z=00;31:*.Z=00;31:*.gz=00;31:*.bz2=00;31:*.tb2=00;31:*.tz2=00;31:*.tbz2=00;31:*.avi=01;35:*.bmp=01;35:*.fli=01;35:*.gif=01;35:*.jpg=01;35:*.jpeg=01;35:*.mng=01;35:*.mov=01;35:*.mpg=01;35:*.pcx=01;35:*.pbm=01;35:*.pgm=01;35:*.png=01;35:*.ppm=01;35:*.tga=01;35:*.tif=01;35:*.xbm=01;35:*.xpm=01;35:*.dl=01;35:*.gl=01;35:*.wmv=01;35:*.aiff=00;32:*.au=00;32:*.mid=00;32:*.mp3=00;32:*.ogg=00;32:*.voc=00;32:*.wav=00;32:
p3040
sVLESS
p3041
V-M -I
p3042
sVMINICOM
p3043
V-c on
p3044
sVLC_CTYPE
p3045
Ven_US.UTF-8
p3046
sVHOSTTYPE
p3047
Vx86_64
p3048
sVLESSOPEN
p3049
Vlessopen.sh %s
p3050
sVQT_SYSTEM_DIR
p3051
V/usr/share/desktop-data
p3052
sVSSH_CLIENT
p3053
V10.8.4.100 52787 22
p3054
sVLOGNAME
p3055
Vyhekma
p3056
sVUSER
p3057
Vyhekma
p3058
sVINPUTRC
p3059
V/home/yhekma/.inputrc
p3060
sVPATH
p3061
V/home/yhekma/bin:/usr/local/bin:/usr/bin:/bin:/usr/bin/X11:/usr/X11R6/bin:/usr/games:/usr/lib/mit/bin:/usr/lib/mit/sbin
p3062
sVLC_PAPER
p3063
Vnl_NL.UTF-8
p3064
sVHOME
p3065
V/home/yhekma
p3066
sVCPU
p3067
Vx86_64
p3068
sVLANG
p3069
Ven_US.UTF-8
p3070
sVINFOPATH
p3071
V/usr/local/info:/usr/share/info:/usr/info
p3072
sVTERM
p3073
Vscreen
p3074
sVSHELL
p3075
V/bin/bash
p3076
sVLC_MONETARY
p3077
Vnl_NL.UTF-8
p3078
sVG_BROKEN_FILENAMES
p3079
V1
sVHISTSIZE
p3080
V1000
p3081
sVLESS_ADVANCED_PREPROCESSOR
p3082
Vno
p3083
sVMANPATH
p3084
V/usr/local/man:/usr/share/man
p3085
sVOSTYPE
p3086
Vlinux
p3087
sVPROFILEREAD
p3088
Vtrue
p3089
sVXKEYSYMDB
p3090
V/usr/share/X11/XKeysymDB
p3091
sVNNTPSERVER
p3092
Vnews
p3093
sVINFODIR
p3094
V/usr/local/info:/usr/share/info:/usr/info
p3095
sVLC_ADDRESS
p3096
Vnl_NL.UTF-8
p3097
sVSSH_AUTH_SOCK
p3098
V/tmp/ssh-FVgs32RsEl/agent.28012
p3099
sVXCURSOR_THEME
p3100
V
sVCSHEDIT
p3101
Vemacs
p3102
sVG_FILENAME_ENCODING
p3103
V@locale,UTF-8,ISO-8859-15,CP1252
p3104
sVHOST
p3105
Vdgp-et-ws1
p3106
sVFROM_HEADER
p3107
V
sVENV
p3108
V/etc/bash.bashrc
p3109
sVLESSKEY
p3110
V/etc/lesskey.bin
p3111
sVXDG_CONFIG_DIRS
p3112
V/etc/xdg
p3113
sVLS_OPTIONS
p3114
V-N --color=tty -T 0
p3115
sVXNLSPATH
p3116
V/usr/share/X11/nls
p3117
sV_
V/usr/bin/python
p3118
sVLC_MEASUREMENT
p3119
Vnl_NL.UTF-8
p3120
sVMACHTYPE
p3121
Vx86_64-suse-linux
p3122
sVLESSCLOSE
p3123
Vlessclose.sh %s %s
p3124
sVPYTHONSTARTUP
p3125
V/etc/pythonstart
p3126
sVSSH_TTY
p3127
V/dev/pts/0
p3128
sVHOSTNAME
p3129
Vdgp-et-ws1
p3130
sVTMOUT
p3131
V6000
p3132
sVLC_TELEPHONE
p3133
Vnl_NL.UTF-8
p3134
sVSSH_SENDS_LOCALE
p3135
Vyes
p3136
sVSHLVL
p3137
V2
sVPWD
p3138
V/home/yhekma
p3139
sVCOLORTERM
p3140
V1
sVLC_NAME
p3141
Vnl_NL.UTF-8
p3142
sVMAIL
p3143
V/var/mail/yhekma
p3144
sVLC_TIME
p3145
Vnl_NL.UTF-8
p3146
sVSSH_CONNECTION
p3147
V10.8.4.100 52787 10.8.4.11 22
p3148
sVPAGER
p3149
Vless
p3150
sVXDG_DATA_DIRS
p3151
V/usr/share
p3152
sVMORE
p3153
V-sl
p3154
ssVansible_processor_vcpus
p3155
I2
sVansible_bios_version
p3156
V6.00
p3157
sVansible_processor
p3158
(lp3159
VIntel(R) Xeon(R) CPU           E5645  @ 2.40GHz
p3160
aVIntel(R) Xeon(R) CPU           E5645  @ 2.40GHz
p3161
asVansible_date_time
p3162
(dp3163
Vtz
p3164
VCEST
p3165
sVhour
p3166
V13
p3167
sVtime
p3168
V13:00:49
p3169
sVtz_offset
p3170
V+0200
p3171
sVmonth
p3172
V09
p3173
sVepoch
p3174
V1410951649
p3175
sViso8601_micro
p3176
V2014-09-17T11:00:49.406555Z
p3177
sVweekday
p3178
Vwoensdag
p3179
sVyear
p3180
V2014
p3181
sVdate
p3182
V2014-09-17
p3183
sViso8601
p3184
V2014-09-17T11:00:49Z
p3185
sVday
p3186
V17
p3187
sVminute
p3188
V00
p3189
sVsecond
p3190
V49
p3191
ssVansible_lo
p3192
(dp3193
Vpromisc
p3194
I00
sVmtu
p3195
I16436
sVactive
p3196
I01
sVipv4_secondaries
p3197
(lp3198
(dp3199
Vnetmask
p3200
V255.0.0.0
p3201
sVnetwork
p3202
V127.0.0.0
p3203
sVaddress
p3204
V127.0.0.2
p3205
sa(dp3206
Vnetmask
p3207
V255.0.0.0
p3208
sVnetwork
p3209
V127.0.0.0
p3210
sVaddress
p3211
V127.0.0.2
p3212
sasVipv4
p3213
(dp3214
Vnetmask
p3215
V255.0.0.0
p3216
sVnetwork
p3217
V127.0.0.0
p3218
sVaddress
p3219
V127.0.0.1
p3220
ssVdevice
p3221
Vlo
p3222
sVtype
p3223
Vloopback
p3224
ssVansible_memtotal_mb
p3225
I3894
sVansible_ssh_host_key_ecdsa_public
p3226
VAAAAE2VjZHNhLXNoYTItbmlzdHAyNTYAAAAIbmlzdHAyNTYAAABBBFo1IfqgNqAXTBb7dzQRD9KxMs8R2vaF0cr9Sy8s21zDdkPXjXbtPxpxYS8uOJvdYHey/w6nZcRxXUYBWFJHf8I=
p3227
sVansible_default_ipv4
p3228
(dp3229
Vmacaddress
p3230
V00:50:56:ad:69:25
p3231
sVnetwork
p3232
V10.8.1.0
p3233
sVmtu
p3234
I1500
sValias
p3235
Veth2
p3236
sVnetmask
p3237
V255.255.255.0
p3238
sVaddress
p3239
V10.8.1.11
p3240
sVinterface
p3241
Veth2
p3242
sVtype
p3243
Vether
p3244
sVgateway
p3245
V10.8.1.1
p3246
ssVansible_swapfree_mb
p3247
I1023
sVansible_default_ipv6
p3248
(dp3249
sVansible_distribution_release
p3250
V2
sVansible_system_vendor
p3251
VVMware, Inc.
p3252
sVansible_os_family
p3253
VSuse
p3254
sVansible_cmdline
p3255
(dp3256
Vresume
p3257
V/dev/vg0/swap
p3258
sVvga
p3259
V0x314
p3260
sVelevator
p3261
Vnoop
p3262
sVsplash
p3263
Vsilent
p3264
sVcrashkernel
p3265
V128M-:64M
p3266
sVroot
p3267
V/dev/vg0/root
p3268
ssVansible_selinux
p3269
I00
sVansible_userspace_architecture
p3270
Vx86_64
p3271
sVansible_product_uuid
p3272
VNA
p3273
sVansible_product_name
p3274
VVMware Virtual Platform
p3275
sVansible_pkg_mgr
p3276
Vzypper
p3277
sVansible_memfree_mb
p3278
I2501
sVansible_system
p3279
VLinux
p3280
sVansible_devices
p3281
(dp3282
Vfd0
p3283
(dp3284
Vscheduler_mode
p3285
Vnoop
p3286
sVrotational
p3287
V1
sVvendor
p3288
NsVsectors
p3289
V8
sVhost
p3290
V
sVsectorsize
p3291
V512
p3292
sVremovable
p3293
V1
sVsupport_discard
p3294
V0
sVmodel
p3295
NsVsize
p3296
V4.00 KB
p3297
sVholders
p3298
(lp3299
sVpartitions
p3300
(dp3301
ssVsr0
p3302
(dp3303
Vscheduler_mode
p3304
Vnoop
p3305
sVrotational
p3306
V1
sVvendor
p3307
VNECVMWar
p3308
sVsectors
p3309
V2097151
p3310
sVhost
p3311
VIDE interface: Intel Corporation 82371AB/EB/MB PIIX4 IDE (rev 01)
p3312
sVsectorsize
p3313
V512
p3314
sVremovable
p3315
V1
sVsupport_discard
p3316
V0
sVmodel
p3317
VVMware IDE CDR10
p3318
sVsize
p3319
V1024.00 MB
p3320
sVholders
p3321
(lp3322
sVpartitions
p3323
(dp3324
ssVsda
p3325
(dp3326
Vscheduler_mode
p3327
Vnoop
p3328
sVrotational
p3329
V1
sVvendor
p3330
VVMware
p3331
sVsectors
p3332
V62914560
p3333
sVhost
p3334
VSCSI storage controller: LSI Logic / Symbios Logic 53c1030 PCI-X Fusion-MPT Dual Ultra320 SCSI (rev 01)
p3335
sVsectorsize
p3336
V512
p3337
sVremovable
p3338
V0
sVsupport_discard
p3339
V0
sVmodel
p3340
VVirtual disk
p3341
sVsize
p3342
V30.00 GB
p3343
sVholders
p3344
(lp3345
sVpartitions
p3346
(dp3347
Vsda2
p3348
(dp3349
Vstart
p3350
V1028096
p3351
sVsectorsize
p3352
I512
sVsectors
p3353
V61886464
p3354
sVsize
p3355
V29.51 GB
p3356
ssVsda1
p3357
(dp3358
Vstart
p3359
V2048
p3360
sVsectorsize
p3361
I512
sVsectors
p3362
V1026048
p3363
sVsize
p3364
V501.00 MB
p3365
sssssVansible_distribution
p3366
VSuse
p3367
sVansible_ssh_host_key_dsa_public
p3368
VAAAAB3NzaC1kc3MAAACBAIjUa2X0W2rsTgraB4vPLq+LAkQvBmlQ31yMzUEsOlYpGo8ozHj8/kzpFOabVLt5Fxrja7JmrkskyxBy5Ie+dwx/CwvKzWgwpSstXuUElJ4cuvffIA9UB/GLVIUoCoOFV5+5afcLjCC7xAFkANnh224rrM0YNLO2XobGT3zYyGiBAAAAFQCwT1DbjnUdNtphp6XMgHUVsVRPTwAAAIBBTAkA2QO1oaUVeDMgd476VFSsj/Y0y8p717UWPnhJzDMeTk9DBWUzwxfncIB4Xs2sZXrUNWAQ8ujXJ5Q8Q0E1IonV6hkQSUOra/fcRbG6UJPbv1PsGq6KKJAX8htlxyM/ZcJjG0fkXlVH8ZdzB/l6Shnjaq7jaWvKZX+L+bVaDwAAAIBsTWPOkfn/8e+s/09wBccZR4LIlDWPmcZ1PA6JyiIXnBABLQGBQgykHaXhyZFADU2c12jBuFqsBSgLKF/rkWd00oTD/JnEH4mcp7v61E164cVCT+B40YXfctMZCFQHU89H+w5HOpEwqpKMkXiSBrT5D7WRYDEsXzM6haA+Qva+Hw==
p3369
sVansible_processor_count
p3370
I2
sVansible_hostname
p3371
Vdgp-et-ws1
p3372
sVansible_bios_date
p3373
V02/22/2012
p3374
sVansible_all_ipv6_addresses
p3375
(lp3376
sVansible_interfaces
p3377
(lp3378
Vlo
p3379
aVeth2
p3380
aVeth1
p3381
aVeth0
p3382
asVansible_machine
p3383
Vx86_64
p3384
sVansible_ssh_host_key_rsa_public
p3385
VAAAAB3NzaC1yc2EAAAABIwAAAIEA3cqlSkHk3wVsxbQqbWC3HYEJLCAlLBKFxcAdzToggkLcGCPz2BTmFimdPLJCp7i+k9fbA8g5saM1Nq9rG0uQw231UfymzY4+/CtJua5qldeFuS4vXxTcaQXost0xQNZDkst1b37jIQsIy4CDR0ecJgRR3Etw29ft5urd1FD222U=
p3386
sVansible_kernel
p3387
V3.0.101-0.8-default
p3388
sVansible_processor_threads_per_core
p3389
I1
sVansible_fqdn
p3390
Vdgp-et-ws1
p3391
sVansible_mounts
p3392
(lp3393
(dp3394
Vsize_total
p3395
I8987635712
sVmount
p3396
V/
sVsize_available
p3397
I5802221568
sVfstype
p3398
Vext3
p3399
sVdevice
p3400
V/dev/mapper/vg0-root
p3401
sVoptions
p3402
Vrw,acl,user_xattr
p3403
sa(dp3404
Vsize_total
p3405
I508728320
sVmount
p3406
V/boot
p3407
sVsize_available
p3408
I428764160
sVfstype
p3409
Vext3
p3410
sVdevice
p3411
V/dev/sda1
p3412
sVoptions
p3413
Vrw,acl,user_xattr
p3414
sa(dp3415
Vsize_total
p3416
I5284429824
sVmount
p3417
V/var/log/IBM
p3418
sVsize_available
p3419
I3611881472
sVfstype
p3420
Vext3
p3421
sVdevice
p3422
V/dev/mapper/vg0-loglv
p3423
sVoptions
p3424
Vrw,acl,user_xattr
p3425
sa(dp3426
Vsize_total
p3427
I15853404160
sVmount
p3428
V/opt
p3429
sVsize_available
p3430
I14068670464
sVfstype
p3431
Vext3
p3432
sVdevice
p3433
V/dev/mapper/vg0-swlv
p3434
sVoptions
p3435
Vrw,acl,user_xattr
p3436
sasVansible_eth0
p3437
(dp3438
Vmacaddress
p3439
V00:50:56:ad:69:23
p3440
sVmodule
p3441
Vvmxnet3
p3442
sVmtu
p3443
I1500
sVactive
p3444
I01
sVpromisc
p3445
I00
sVipv4
p3446
(dp3447
Vnetmask
p3448
V255.255.255.0
p3449
sVnetwork
p3450
V10.8.2.0
p3451
sVaddress
p3452
V10.8.2.11
p3453
ssVdevice
p3454
Veth0
p3455
sVtype
p3456
Vether
p3457
ssVansible_eth1
p3458
(dp3459
Vmacaddress
p3460
V00:50:56:ad:69:24
p3461
sVmodule
p3462
Vvmxnet3
p3463
sVmtu
p3464
I1500
sVactive
p3465
I01
sVpromisc
p3466
I00
sVipv4
p3467
(dp3468
Vnetmask
p3469
V255.255.255.0
p3470
sVnetwork
p3471
V10.8.4.0
p3472
sVaddress
p3473
V10.8.4.11
p3474
ssVdevice
p3475
Veth1
p3476
sVtype
p3477
Vether
p3478
ssVansible_eth2
p3479
(dp3480
Vmacaddress
p3481
V00:50:56:ad:69:25
p3482
sVmodule
p3483
Vvmxnet3
p3484
sVmtu
p3485
I1500
sVactive
p3486
I01
sVpromisc
p3487
I00
sVipv4
p3488
(dp3489
Vnetmask
p3490
V255.255.255.0
p3491
sVnetwork
p3492
V10.8.1.0
p3493
sVaddress
p3494
V10.8.1.11
p3495
ssVdevice
p3496
Veth2
p3497
sVtype
p3498
Vether
p3499
ssVansible_distribution_major_version
p3500
V11
p3501
sVansible_all_ipv4_addresses
p3502
(lp3503
V10.8.2.11
p3504
aV10.8.4.11
p3505
aV10.8.1.11
p3506
asVansible_nodename
p3507
Vdgp-et-ws1
p3508
ss.